// This file is generated from a similarly-named Perl script in the BoringSSL
// source tree. Do not edit by hand.

#include <openssl/asm_base.h>

#if !defined(OPENSSL_NO_ASM) && defined(OPENSSL_X86_64) && defined(__ELF__)
.text	
.globl	gcm_init_avx512
.hidden gcm_init_avx512
.hidden	gcm_init_avx512
.type	gcm_init_avx512,@function
.align	32
gcm_init_avx512:
.cfi_startproc	
.byte	243,15,30,250
	vmovdqu64	(%rsi),%xmm16
	vpalignr	$8,%xmm16,%xmm16,%xmm16

	vmovdqa64	%xmm16,%xmm2
	vpsllq	$1,%xmm16,%xmm16
	vpsrlq	$63,%xmm2,%xmm2
	vmovdqa	%xmm2,%xmm1
	vpslldq	$8,%xmm2,%xmm2
	vpsrldq	$8,%xmm1,%xmm1
	vporq	%xmm2,%xmm16,%xmm16

	vpshufd	$36,%xmm1,%xmm2
	vpcmpeqd	TWOONE(%rip),%xmm2,%xmm2
	vpand	POLY(%rip),%xmm2,%xmm2
	vpxorq	%xmm2,%xmm16,%xmm16

	vmovdqu64	%xmm16,240(%rdi)
	vshufi32x4	$0x00,%ymm16,%ymm16,%ymm4
	vmovdqa	%ymm4,%ymm3

.byte	98,243,101,40,68,196,17
.byte	98,243,101,40,68,204,0
.byte	98,243,101,40,68,212,1
.byte	98,243,101,40,68,220,16
	vpxorq	%ymm2,%ymm3,%ymm3

	vpsrldq	$8,%ymm3,%ymm2
	vpslldq	$8,%ymm3,%ymm3
	vpxorq	%ymm2,%ymm0,%ymm0
	vpxorq	%ymm1,%ymm3,%ymm3



	vmovdqu64	POLY2(%rip),%ymm2

.byte	98,243,109,40,68,203,1
	vpslldq	$8,%ymm1,%ymm1
	vpxorq	%ymm1,%ymm3,%ymm3



.byte	98,243,109,40,68,203,0
	vpsrldq	$4,%ymm1,%ymm1
.byte	98,243,109,40,68,219,16
	vpslldq	$4,%ymm3,%ymm3

	vpternlogq	$0x96,%ymm1,%ymm0,%ymm3

	vmovdqu64	%xmm3,224(%rdi)
	vinserti64x2	$1,%xmm16,%ymm3,%ymm4
	vmovdqa64	%ymm4,%ymm5

.byte	98,243,93,40,68,195,17
.byte	98,243,93,40,68,203,0
.byte	98,243,93,40,68,211,1
.byte	98,243,93,40,68,227,16
	vpxorq	%ymm2,%ymm4,%ymm4

	vpsrldq	$8,%ymm4,%ymm2
	vpslldq	$8,%ymm4,%ymm4
	vpxorq	%ymm2,%ymm0,%ymm0
	vpxorq	%ymm1,%ymm4,%ymm4



	vmovdqu64	POLY2(%rip),%ymm2

.byte	98,243,109,40,68,204,1
	vpslldq	$8,%ymm1,%ymm1
	vpxorq	%ymm1,%ymm4,%ymm4



.byte	98,243,109,40,68,204,0
	vpsrldq	$4,%ymm1,%ymm1
.byte	98,243,109,40,68,228,16
	vpslldq	$4,%ymm4,%ymm4

	vpternlogq	$0x96,%ymm1,%ymm0,%ymm4

	vmovdqu64	%ymm4,192(%rdi)

	vinserti64x4	$1,%ymm5,%zmm4,%zmm4


	vshufi64x2	$0x00,%zmm4,%zmm4,%zmm3
	vmovdqa64	%zmm4,%zmm5

.byte	98,243,93,72,68,195,17
.byte	98,243,93,72,68,203,0
.byte	98,243,93,72,68,211,1
.byte	98,243,93,72,68,227,16
	vpxorq	%zmm2,%zmm4,%zmm4

	vpsrldq	$8,%zmm4,%zmm2
	vpslldq	$8,%zmm4,%zmm4
	vpxorq	%zmm2,%zmm0,%zmm0
	vpxorq	%zmm1,%zmm4,%zmm4



	vmovdqu64	POLY2(%rip),%zmm2

.byte	98,243,109,72,68,204,1
	vpslldq	$8,%zmm1,%zmm1
	vpxorq	%zmm1,%zmm4,%zmm4



.byte	98,243,109,72,68,204,0
	vpsrldq	$4,%zmm1,%zmm1
.byte	98,243,109,72,68,228,16
	vpslldq	$4,%zmm4,%zmm4

	vpternlogq	$0x96,%zmm1,%zmm0,%zmm4

	vmovdqu64	%zmm4,128(%rdi)
	vshufi64x2	$0x00,%zmm4,%zmm4,%zmm3

.byte	98,243,85,72,68,195,17
.byte	98,243,85,72,68,203,0
.byte	98,243,85,72,68,211,1
.byte	98,243,85,72,68,235,16
	vpxorq	%zmm2,%zmm5,%zmm5

	vpsrldq	$8,%zmm5,%zmm2
	vpslldq	$8,%zmm5,%zmm5
	vpxorq	%zmm2,%zmm0,%zmm0
	vpxorq	%zmm1,%zmm5,%zmm5



	vmovdqu64	POLY2(%rip),%zmm2

.byte	98,243,109,72,68,205,1
	vpslldq	$8,%zmm1,%zmm1
	vpxorq	%zmm1,%zmm5,%zmm5



.byte	98,243,109,72,68,205,0
	vpsrldq	$4,%zmm1,%zmm1
.byte	98,243,109,72,68,237,16
	vpslldq	$4,%zmm5,%zmm5

	vpternlogq	$0x96,%zmm1,%zmm0,%zmm5

	vmovdqu64	%zmm5,64(%rdi)

.byte	98,243,93,72,68,195,17
.byte	98,243,93,72,68,203,0
.byte	98,243,93,72,68,211,1
.byte	98,243,93,72,68,227,16
	vpxorq	%zmm2,%zmm4,%zmm4

	vpsrldq	$8,%zmm4,%zmm2
	vpslldq	$8,%zmm4,%zmm4
	vpxorq	%zmm2,%zmm0,%zmm0
	vpxorq	%zmm1,%zmm4,%zmm4



	vmovdqu64	POLY2(%rip),%zmm2

.byte	98,243,109,72,68,204,1
	vpslldq	$8,%zmm1,%zmm1
	vpxorq	%zmm1,%zmm4,%zmm4



.byte	98,243,109,72,68,204,0
	vpsrldq	$4,%zmm1,%zmm1
.byte	98,243,109,72,68,228,16
	vpslldq	$4,%zmm4,%zmm4

	vpternlogq	$0x96,%zmm1,%zmm0,%zmm4

	vmovdqu64	%zmm4,0(%rdi)
	vzeroupper
.Lexit_init:
	.byte	0xf3,0xc3
.cfi_endproc	
.size	gcm_init_avx512, .-gcm_init_avx512
.globl	gcm_gmult_avx512
.hidden gcm_gmult_avx512
.hidden	gcm_gmult_avx512
.type	gcm_gmult_avx512,@function
.align	32
gcm_gmult_avx512:
.cfi_startproc	
.byte	243,15,30,250
	vmovdqu64	(%rdi),%xmm1


	vpshufb	SHUF_MASK(%rip),%xmm1,%xmm1
	vmovdqu64	240(%rsi),%xmm2

.byte	98,243,117,8,68,218,17
.byte	98,243,117,8,68,226,0
.byte	98,243,117,8,68,234,1
.byte	98,243,117,8,68,202,16
	vpxorq	%xmm5,%xmm1,%xmm1

	vpsrldq	$8,%xmm1,%xmm5
	vpslldq	$8,%xmm1,%xmm1
	vpxorq	%xmm5,%xmm3,%xmm3
	vpxorq	%xmm4,%xmm1,%xmm1



	vmovdqu64	POLY2(%rip),%xmm5

.byte	98,243,85,8,68,225,1
	vpslldq	$8,%xmm4,%xmm4
	vpxorq	%xmm4,%xmm1,%xmm1



.byte	98,243,85,8,68,225,0
	vpsrldq	$4,%xmm4,%xmm4
.byte	98,243,85,8,68,201,16
	vpslldq	$4,%xmm1,%xmm1

	vpternlogq	$0x96,%xmm4,%xmm3,%xmm1

	vpshufb	SHUF_MASK(%rip),%xmm1,%xmm1
	vmovdqu64	%xmm1,(%rdi)
	vzeroupper
.Lexit_gmult:
	.byte	0xf3,0xc3
.cfi_endproc	
.size	gcm_gmult_avx512, .-gcm_gmult_avx512
.globl	gcm_ghash_avx512
.hidden gcm_ghash_avx512
.hidden	gcm_ghash_avx512
.type	gcm_ghash_avx512,@function
.align	32
gcm_ghash_avx512:
.cfi_startproc	
.Lghash_seh_begin:
.byte	243,15,30,250
	pushq	%rbx
.cfi_adjust_cfa_offset	8
.cfi_offset	%rbx,-16
.Lghash_seh_push_rbx:
	pushq	%rbp
.cfi_adjust_cfa_offset	8
.cfi_offset	%rbp,-24
.Lghash_seh_push_rbp:
	pushq	%r12
.cfi_adjust_cfa_offset	8
.cfi_offset	%r12,-32
.Lghash_seh_push_r12:
	pushq	%r13
.cfi_adjust_cfa_offset	8
.cfi_offset	%r13,-40
.Lghash_seh_push_r13:
	pushq	%r14
.cfi_adjust_cfa_offset	8
.cfi_offset	%r14,-48
.Lghash_seh_push_r14:
	pushq	%r15
.cfi_adjust_cfa_offset	8
.cfi_offset	%r15,-56
.Lghash_seh_push_r15:










	leaq	0(%rsp),%rbp
.cfi_def_cfa_register	%rbp
.Lghash_seh_setfp:

.Lghash_seh_prolog_end:
	subq	$820,%rsp
	andq	$(-64),%rsp
	vmovdqu64	(%rdi),%xmm14
	vpshufb	SHUF_MASK(%rip),%xmm14,%xmm14
	movq	%rdx,%r10
	movq	%rcx,%r11
	orq	%r11,%r11
	jz	.L_CALC_AAD_done_hEgxyDlCngwrfFe

	xorq	%rbx,%rbx
	vmovdqa64	SHUF_MASK(%rip),%zmm16

.L_get_AAD_loop48x16_hEgxyDlCngwrfFe:
	cmpq	$768,%r11
	jl	.L_exit_AAD_loop48x16_hEgxyDlCngwrfFe
	vmovdqu64	0(%r10),%zmm11
	vmovdqu64	64(%r10),%zmm3
	vmovdqu64	128(%r10),%zmm4
	vmovdqu64	192(%r10),%zmm5
	vpshufb	%zmm16,%zmm11,%zmm11
	vpshufb	%zmm16,%zmm3,%zmm3
	vpshufb	%zmm16,%zmm4,%zmm4
	vpshufb	%zmm16,%zmm5,%zmm5
	testq	%rbx,%rbx
	jnz	.L_skip_hkeys_precomputation_amivrujEyduiFoi

	vmovdqu64	192(%rsi),%zmm1
	vmovdqu64	%zmm1,704(%rsp)

	vmovdqu64	128(%rsi),%zmm9
	vmovdqu64	%zmm9,640(%rsp)


	vshufi64x2	$0x00,%zmm9,%zmm9,%zmm9

	vmovdqu64	64(%rsi),%zmm10
	vmovdqu64	%zmm10,576(%rsp)

	vmovdqu64	0(%rsi),%zmm12
	vmovdqu64	%zmm12,512(%rsp)

.byte	98,83,45,72,68,233,17
.byte	98,83,45,72,68,249,0
.byte	98,195,45,72,68,201,1
.byte	98,83,45,72,68,209,16
	vpxorq	%zmm17,%zmm10,%zmm10

	vpsrldq	$8,%zmm10,%zmm17
	vpslldq	$8,%zmm10,%zmm10
	vpxorq	%zmm17,%zmm13,%zmm13
	vpxorq	%zmm15,%zmm10,%zmm10



	vmovdqu64	POLY2(%rip),%zmm17

.byte	98,83,117,64,68,250,1
	vpslldq	$8,%zmm15,%zmm15
	vpxorq	%zmm15,%zmm10,%zmm10



.byte	98,83,117,64,68,250,0
	vpsrldq	$4,%zmm15,%zmm15
.byte	98,83,117,64,68,210,16
	vpslldq	$4,%zmm10,%zmm10

	vpternlogq	$0x96,%zmm15,%zmm13,%zmm10

	vmovdqu64	%zmm10,448(%rsp)

.byte	98,83,29,72,68,233,17
.byte	98,83,29,72,68,249,0
.byte	98,195,29,72,68,201,1
.byte	98,83,29,72,68,225,16
	vpxorq	%zmm17,%zmm12,%zmm12

	vpsrldq	$8,%zmm12,%zmm17
	vpslldq	$8,%zmm12,%zmm12
	vpxorq	%zmm17,%zmm13,%zmm13
	vpxorq	%zmm15,%zmm12,%zmm12



	vmovdqu64	POLY2(%rip),%zmm17

.byte	98,83,117,64,68,252,1
	vpslldq	$8,%zmm15,%zmm15
	vpxorq	%zmm15,%zmm12,%zmm12



.byte	98,83,117,64,68,252,0
	vpsrldq	$4,%zmm15,%zmm15
.byte	98,83,117,64,68,228,16
	vpslldq	$4,%zmm12,%zmm12

	vpternlogq	$0x96,%zmm15,%zmm13,%zmm12

	vmovdqu64	%zmm12,384(%rsp)

.byte	98,83,45,72,68,233,17
.byte	98,83,45,72,68,249,0
.byte	98,195,45,72,68,201,1
.byte	98,83,45,72,68,209,16
	vpxorq	%zmm17,%zmm10,%zmm10

	vpsrldq	$8,%zmm10,%zmm17
	vpslldq	$8,%zmm10,%zmm10
	vpxorq	%zmm17,%zmm13,%zmm13
	vpxorq	%zmm15,%zmm10,%zmm10



	vmovdqu64	POLY2(%rip),%zmm17

.byte	98,83,117,64,68,250,1
	vpslldq	$8,%zmm15,%zmm15
	vpxorq	%zmm15,%zmm10,%zmm10



.byte	98,83,117,64,68,250,0
	vpsrldq	$4,%zmm15,%zmm15
.byte	98,83,117,64,68,210,16
	vpslldq	$4,%zmm10,%zmm10

	vpternlogq	$0x96,%zmm15,%zmm13,%zmm10

	vmovdqu64	%zmm10,320(%rsp)

.byte	98,83,29,72,68,233,17
.byte	98,83,29,72,68,249,0
.byte	98,195,29,72,68,201,1
.byte	98,83,29,72,68,225,16
	vpxorq	%zmm17,%zmm12,%zmm12

	vpsrldq	$8,%zmm12,%zmm17
	vpslldq	$8,%zmm12,%zmm12
	vpxorq	%zmm17,%zmm13,%zmm13
	vpxorq	%zmm15,%zmm12,%zmm12



	vmovdqu64	POLY2(%rip),%zmm17

.byte	98,83,117,64,68,252,1
	vpslldq	$8,%zmm15,%zmm15
	vpxorq	%zmm15,%zmm12,%zmm12



.byte	98,83,117,64,68,252,0
	vpsrldq	$4,%zmm15,%zmm15
.byte	98,83,117,64,68,228,16
	vpslldq	$4,%zmm12,%zmm12

	vpternlogq	$0x96,%zmm15,%zmm13,%zmm12

	vmovdqu64	%zmm12,256(%rsp)

.byte	98,83,45,72,68,233,17
.byte	98,83,45,72,68,249,0
.byte	98,195,45,72,68,201,1
.byte	98,83,45,72,68,209,16
	vpxorq	%zmm17,%zmm10,%zmm10

	vpsrldq	$8,%zmm10,%zmm17
	vpslldq	$8,%zmm10,%zmm10
	vpxorq	%zmm17,%zmm13,%zmm13
	vpxorq	%zmm15,%zmm10,%zmm10



	vmovdqu64	POLY2(%rip),%zmm17

.byte	98,83,117,64,68,250,1
	vpslldq	$8,%zmm15,%zmm15
	vpxorq	%zmm15,%zmm10,%zmm10



.byte	98,83,117,64,68,250,0
	vpsrldq	$4,%zmm15,%zmm15
.byte	98,83,117,64,68,210,16
	vpslldq	$4,%zmm10,%zmm10

	vpternlogq	$0x96,%zmm15,%zmm13,%zmm10

	vmovdqu64	%zmm10,192(%rsp)

.byte	98,83,29,72,68,233,17
.byte	98,83,29,72,68,249,0
.byte	98,195,29,72,68,201,1
.byte	98,83,29,72,68,225,16
	vpxorq	%zmm17,%zmm12,%zmm12

	vpsrldq	$8,%zmm12,%zmm17
	vpslldq	$8,%zmm12,%zmm12
	vpxorq	%zmm17,%zmm13,%zmm13
	vpxorq	%zmm15,%zmm12,%zmm12



	vmovdqu64	POLY2(%rip),%zmm17

.byte	98,83,117,64,68,252,1
	vpslldq	$8,%zmm15,%zmm15
	vpxorq	%zmm15,%zmm12,%zmm12



.byte	98,83,117,64,68,252,0
	vpsrldq	$4,%zmm15,%zmm15
.byte	98,83,117,64,68,228,16
	vpslldq	$4,%zmm12,%zmm12

	vpternlogq	$0x96,%zmm15,%zmm13,%zmm12

	vmovdqu64	%zmm12,128(%rsp)

.byte	98,83,45,72,68,233,17
.byte	98,83,45,72,68,249,0
.byte	98,195,45,72,68,201,1
.byte	98,83,45,72,68,209,16
	vpxorq	%zmm17,%zmm10,%zmm10

	vpsrldq	$8,%zmm10,%zmm17
	vpslldq	$8,%zmm10,%zmm10
	vpxorq	%zmm17,%zmm13,%zmm13
	vpxorq	%zmm15,%zmm10,%zmm10



	vmovdqu64	POLY2(%rip),%zmm17

.byte	98,83,117,64,68,250,1
	vpslldq	$8,%zmm15,%zmm15
	vpxorq	%zmm15,%zmm10,%zmm10



.byte	98,83,117,64,68,250,0
	vpsrldq	$4,%zmm15,%zmm15
.byte	98,83,117,64,68,210,16
	vpslldq	$4,%zmm10,%zmm10

	vpternlogq	$0x96,%zmm15,%zmm13,%zmm10

	vmovdqu64	%zmm10,64(%rsp)

.byte	98,83,29,72,68,233,17
.byte	98,83,29,72,68,249,0
.byte	98,195,29,72,68,201,1
.byte	98,83,29,72,68,225,16
	vpxorq	%zmm17,%zmm12,%zmm12

	vpsrldq	$8,%zmm12,%zmm17
	vpslldq	$8,%zmm12,%zmm12
	vpxorq	%zmm17,%zmm13,%zmm13
	vpxorq	%zmm15,%zmm12,%zmm12



	vmovdqu64	POLY2(%rip),%zmm17

.byte	98,83,117,64,68,252,1
	vpslldq	$8,%zmm15,%zmm15
	vpxorq	%zmm15,%zmm12,%zmm12



.byte	98,83,117,64,68,252,0
	vpsrldq	$4,%zmm15,%zmm15
.byte	98,83,117,64,68,228,16
	vpslldq	$4,%zmm12,%zmm12

	vpternlogq	$0x96,%zmm15,%zmm13,%zmm12

	vmovdqu64	%zmm12,0(%rsp)
.L_skip_hkeys_precomputation_amivrujEyduiFoi:
	movq	$1,%rbx
	vpxorq	%zmm14,%zmm11,%zmm11
	vmovdqu64	0(%rsp),%zmm19
.byte	98,179,37,72,68,203,17
.byte	98,51,37,72,68,203,0
.byte	98,51,37,72,68,211,1
.byte	98,51,37,72,68,227,16
	vmovdqu64	64(%rsp),%zmm19
.byte	98,51,101,72,68,235,17
.byte	98,51,101,72,68,251,0
.byte	98,163,101,72,68,203,1
.byte	98,163,101,72,68,211,16
	vpxorq	%zmm17,%zmm10,%zmm7
	vpxorq	%zmm13,%zmm1,%zmm6
	vpxorq	%zmm15,%zmm9,%zmm8
	vpternlogq	$0x96,%zmm18,%zmm12,%zmm7
	vmovdqu64	128(%rsp),%zmm19
.byte	98,179,93,72,68,203,17
.byte	98,51,93,72,68,203,0
.byte	98,51,93,72,68,211,1
.byte	98,51,93,72,68,227,16
	vmovdqu64	192(%rsp),%zmm19
.byte	98,51,85,72,68,235,17
.byte	98,51,85,72,68,251,0
.byte	98,163,85,72,68,203,1
.byte	98,163,85,72,68,211,16

	vpternlogq	$0x96,%zmm17,%zmm10,%zmm7
	vpternlogq	$0x96,%zmm13,%zmm1,%zmm6
	vpternlogq	$0x96,%zmm15,%zmm9,%zmm8
	vpternlogq	$0x96,%zmm18,%zmm12,%zmm7
	vmovdqu64	256(%r10),%zmm11
	vmovdqu64	320(%r10),%zmm3
	vmovdqu64	384(%r10),%zmm4
	vmovdqu64	448(%r10),%zmm5
	vpshufb	%zmm16,%zmm11,%zmm11
	vpshufb	%zmm16,%zmm3,%zmm3
	vpshufb	%zmm16,%zmm4,%zmm4
	vpshufb	%zmm16,%zmm5,%zmm5
	vmovdqu64	256(%rsp),%zmm19
.byte	98,179,37,72,68,203,17
.byte	98,51,37,72,68,203,0
.byte	98,51,37,72,68,211,1
.byte	98,51,37,72,68,227,16
	vmovdqu64	320(%rsp),%zmm19
.byte	98,51,101,72,68,235,17
.byte	98,51,101,72,68,251,0
.byte	98,163,101,72,68,203,1
.byte	98,163,101,72,68,211,16
	vpternlogq	$0x96,%zmm17,%zmm10,%zmm7
	vpternlogq	$0x96,%zmm13,%zmm1,%zmm6
	vpternlogq	$0x96,%zmm15,%zmm9,%zmm8
	vpternlogq	$0x96,%zmm18,%zmm12,%zmm7
	vmovdqu64	384(%rsp),%zmm19
.byte	98,179,93,72,68,203,17
.byte	98,51,93,72,68,203,0
.byte	98,51,93,72,68,211,1
.byte	98,51,93,72,68,227,16
	vmovdqu64	448(%rsp),%zmm19
.byte	98,51,85,72,68,235,17
.byte	98,51,85,72,68,251,0
.byte	98,163,85,72,68,203,1
.byte	98,163,85,72,68,211,16

	vpternlogq	$0x96,%zmm17,%zmm10,%zmm7
	vpternlogq	$0x96,%zmm13,%zmm1,%zmm6
	vpternlogq	$0x96,%zmm15,%zmm9,%zmm8
	vpternlogq	$0x96,%zmm18,%zmm12,%zmm7
	vmovdqu64	512(%r10),%zmm11
	vmovdqu64	576(%r10),%zmm3
	vmovdqu64	640(%r10),%zmm4
	vmovdqu64	704(%r10),%zmm5
	vpshufb	%zmm16,%zmm11,%zmm11
	vpshufb	%zmm16,%zmm3,%zmm3
	vpshufb	%zmm16,%zmm4,%zmm4
	vpshufb	%zmm16,%zmm5,%zmm5
	vmovdqu64	512(%rsp),%zmm19
.byte	98,179,37,72,68,203,17
.byte	98,51,37,72,68,203,0
.byte	98,51,37,72,68,211,1
.byte	98,51,37,72,68,227,16
	vmovdqu64	576(%rsp),%zmm19
.byte	98,51,101,72,68,235,17
.byte	98,51,101,72,68,251,0
.byte	98,163,101,72,68,203,1
.byte	98,163,101,72,68,211,16
	vpternlogq	$0x96,%zmm17,%zmm10,%zmm7
	vpternlogq	$0x96,%zmm13,%zmm1,%zmm6
	vpternlogq	$0x96,%zmm15,%zmm9,%zmm8
	vpternlogq	$0x96,%zmm18,%zmm12,%zmm7
	vmovdqu64	640(%rsp),%zmm19
.byte	98,179,93,72,68,203,17
.byte	98,51,93,72,68,203,0
.byte	98,51,93,72,68,211,1
.byte	98,51,93,72,68,227,16
	vmovdqu64	704(%rsp),%zmm19
.byte	98,51,85,72,68,235,17
.byte	98,51,85,72,68,251,0
.byte	98,163,85,72,68,203,1
.byte	98,163,85,72,68,211,16

	vpternlogq	$0x96,%zmm17,%zmm10,%zmm7
	vpternlogq	$0x96,%zmm13,%zmm1,%zmm6
	vpternlogq	$0x96,%zmm15,%zmm9,%zmm8
	vpternlogq	$0x96,%zmm18,%zmm12,%zmm7

	vpsrldq	$8,%zmm7,%zmm1
	vpslldq	$8,%zmm7,%zmm9
	vpxorq	%zmm1,%zmm6,%zmm6
	vpxorq	%zmm9,%zmm8,%zmm8
	vextracti64x4	$1,%zmm6,%ymm1
	vpxorq	%ymm1,%ymm6,%ymm6
	vextracti32x4	$1,%ymm6,%xmm1
	vpxorq	%xmm1,%xmm6,%xmm6
	vextracti64x4	$1,%zmm8,%ymm9
	vpxorq	%ymm9,%ymm8,%ymm8
	vextracti32x4	$1,%ymm8,%xmm9
	vpxorq	%xmm9,%xmm8,%xmm8
	vmovdqa64	POLY2(%rip),%xmm10


.byte	98,211,45,8,68,200,1
	vpslldq	$8,%xmm1,%xmm1
	vpxorq	%xmm1,%xmm8,%xmm1


.byte	98,115,45,8,68,201,0
	vpsrldq	$4,%xmm9,%xmm9
.byte	98,115,45,8,68,241,16
	vpslldq	$4,%xmm14,%xmm14
	vpternlogq	$0x96,%xmm6,%xmm9,%xmm14

	subq	$768,%r11
	je	.L_CALC_AAD_done_hEgxyDlCngwrfFe

	addq	$768,%r10
	jmp	.L_get_AAD_loop48x16_hEgxyDlCngwrfFe

.L_exit_AAD_loop48x16_hEgxyDlCngwrfFe:

	cmpq	$512,%r11
	jl	.L_less_than_32x16_hEgxyDlCngwrfFe

	vmovdqu64	0(%r10),%zmm11
	vmovdqu64	64(%r10),%zmm3
	vmovdqu64	128(%r10),%zmm4
	vmovdqu64	192(%r10),%zmm5
	vpshufb	%zmm16,%zmm11,%zmm11
	vpshufb	%zmm16,%zmm3,%zmm3
	vpshufb	%zmm16,%zmm4,%zmm4
	vpshufb	%zmm16,%zmm5,%zmm5
	testq	%rbx,%rbx
	jnz	.L_skip_hkeys_precomputation_wcpqaDvsGlbjGoe

	vmovdqu64	192(%rsi),%zmm1
	vmovdqu64	%zmm1,704(%rsp)

	vmovdqu64	128(%rsi),%zmm9
	vmovdqu64	%zmm9,640(%rsp)


	vshufi64x2	$0x00,%zmm9,%zmm9,%zmm9

	vmovdqu64	64(%rsi),%zmm10
	vmovdqu64	%zmm10,576(%rsp)

	vmovdqu64	0(%rsi),%zmm12
	vmovdqu64	%zmm12,512(%rsp)

.byte	98,83,45,72,68,233,17
.byte	98,83,45,72,68,249,0
.byte	98,195,45,72,68,201,1
.byte	98,83,45,72,68,209,16
	vpxorq	%zmm17,%zmm10,%zmm10

	vpsrldq	$8,%zmm10,%zmm17
	vpslldq	$8,%zmm10,%zmm10
	vpxorq	%zmm17,%zmm13,%zmm13
	vpxorq	%zmm15,%zmm10,%zmm10



	vmovdqu64	POLY2(%rip),%zmm17

.byte	98,83,117,64,68,250,1
	vpslldq	$8,%zmm15,%zmm15
	vpxorq	%zmm15,%zmm10,%zmm10



.byte	98,83,117,64,68,250,0
	vpsrldq	$4,%zmm15,%zmm15
.byte	98,83,117,64,68,210,16
	vpslldq	$4,%zmm10,%zmm10

	vpternlogq	$0x96,%zmm15,%zmm13,%zmm10

	vmovdqu64	%zmm10,448(%rsp)

.byte	98,83,29,72,68,233,17
.byte	98,83,29,72,68,249,0
.byte	98,195,29,72,68,201,1
.byte	98,83,29,72,68,225,16
	vpxorq	%zmm17,%zmm12,%zmm12

	vpsrldq	$8,%zmm12,%zmm17
	vpslldq	$8,%zmm12,%zmm12
	vpxorq	%zmm17,%zmm13,%zmm13
	vpxorq	%zmm15,%zmm12,%zmm12



	vmovdqu64	POLY2(%rip),%zmm17

.byte	98,83,117,64,68,252,1
	vpslldq	$8,%zmm15,%zmm15
	vpxorq	%zmm15,%zmm12,%zmm12



.byte	98,83,117,64,68,252,0
	vpsrldq	$4,%zmm15,%zmm15
.byte	98,83,117,64,68,228,16
	vpslldq	$4,%zmm12,%zmm12

	vpternlogq	$0x96,%zmm15,%zmm13,%zmm12

	vmovdqu64	%zmm12,384(%rsp)

.byte	98,83,45,72,68,233,17
.byte	98,83,45,72,68,249,0
.byte	98,195,45,72,68,201,1
.byte	98,83,45,72,68,209,16
	vpxorq	%zmm17,%zmm10,%zmm10

	vpsrldq	$8,%zmm10,%zmm17
	vpslldq	$8,%zmm10,%zmm10
	vpxorq	%zmm17,%zmm13,%zmm13
	vpxorq	%zmm15,%zmm10,%zmm10



	vmovdqu64	POLY2(%rip),%zmm17

.byte	98,83,117,64,68,250,1
	vpslldq	$8,%zmm15,%zmm15
	vpxorq	%zmm15,%zmm10,%zmm10



.byte	98,83,117,64,68,250,0
	vpsrldq	$4,%zmm15,%zmm15
.byte	98,83,117,64,68,210,16
	vpslldq	$4,%zmm10,%zmm10

	vpternlogq	$0x96,%zmm15,%zmm13,%zmm10

	vmovdqu64	%zmm10,320(%rsp)

.byte	98,83,29,72,68,233,17
.byte	98,83,29,72,68,249,0
.byte	98,195,29,72,68,201,1
.byte	98,83,29,72,68,225,16
	vpxorq	%zmm17,%zmm12,%zmm12

	vpsrldq	$8,%zmm12,%zmm17
	vpslldq	$8,%zmm12,%zmm12
	vpxorq	%zmm17,%zmm13,%zmm13
	vpxorq	%zmm15,%zmm12,%zmm12



	vmovdqu64	POLY2(%rip),%zmm17

.byte	98,83,117,64,68,252,1
	vpslldq	$8,%zmm15,%zmm15
	vpxorq	%zmm15,%zmm12,%zmm12



.byte	98,83,117,64,68,252,0
	vpsrldq	$4,%zmm15,%zmm15
.byte	98,83,117,64,68,228,16
	vpslldq	$4,%zmm12,%zmm12

	vpternlogq	$0x96,%zmm15,%zmm13,%zmm12

	vmovdqu64	%zmm12,256(%rsp)
.L_skip_hkeys_precomputation_wcpqaDvsGlbjGoe:
	movq	$1,%rbx
	vpxorq	%zmm14,%zmm11,%zmm11
	vmovdqu64	256(%rsp),%zmm19
.byte	98,179,37,72,68,203,17
.byte	98,51,37,72,68,203,0
.byte	98,51,37,72,68,211,1
.byte	98,51,37,72,68,227,16
	vmovdqu64	320(%rsp),%zmm19
.byte	98,51,101,72,68,235,17
.byte	98,51,101,72,68,251,0
.byte	98,163,101,72,68,203,1
.byte	98,163,101,72,68,211,16
	vpxorq	%zmm17,%zmm10,%zmm7
	vpxorq	%zmm13,%zmm1,%zmm6
	vpxorq	%zmm15,%zmm9,%zmm8
	vpternlogq	$0x96,%zmm18,%zmm12,%zmm7
	vmovdqu64	384(%rsp),%zmm19
.byte	98,179,93,72,68,203,17
.byte	98,51,93,72,68,203,0
.byte	98,51,93,72,68,211,1
.byte	98,51,93,72,68,227,16
	vmovdqu64	448(%rsp),%zmm19
.byte	98,51,85,72,68,235,17
.byte	98,51,85,72,68,251,0
.byte	98,163,85,72,68,203,1
.byte	98,163,85,72,68,211,16

	vpternlogq	$0x96,%zmm17,%zmm10,%zmm7
	vpternlogq	$0x96,%zmm13,%zmm1,%zmm6
	vpternlogq	$0x96,%zmm15,%zmm9,%zmm8
	vpternlogq	$0x96,%zmm18,%zmm12,%zmm7
	vmovdqu64	256(%r10),%zmm11
	vmovdqu64	320(%r10),%zmm3
	vmovdqu64	384(%r10),%zmm4
	vmovdqu64	448(%r10),%zmm5
	vpshufb	%zmm16,%zmm11,%zmm11
	vpshufb	%zmm16,%zmm3,%zmm3
	vpshufb	%zmm16,%zmm4,%zmm4
	vpshufb	%zmm16,%zmm5,%zmm5
	vmovdqu64	512(%rsp),%zmm19
.byte	98,179,37,72,68,203,17
.byte	98,51,37,72,68,203,0
.byte	98,51,37,72,68,211,1
.byte	98,51,37,72,68,227,16
	vmovdqu64	576(%rsp),%zmm19
.byte	98,51,101,72,68,235,17
.byte	98,51,101,72,68,251,0
.byte	98,163,101,72,68,203,1
.byte	98,163,101,72,68,211,16
	vpternlogq	$0x96,%zmm17,%zmm10,%zmm7
	vpternlogq	$0x96,%zmm13,%zmm1,%zmm6
	vpternlogq	$0x96,%zmm15,%zmm9,%zmm8
	vpternlogq	$0x96,%zmm18,%zmm12,%zmm7
	vmovdqu64	640(%rsp),%zmm19
.byte	98,179,93,72,68,203,17
.byte	98,51,93,72,68,203,0
.byte	98,51,93,72,68,211,1
.byte	98,51,93,72,68,227,16
	vmovdqu64	704(%rsp),%zmm19
.byte	98,51,85,72,68,235,17
.byte	98,51,85,72,68,251,0
.byte	98,163,85,72,68,203,1
.byte	98,163,85,72,68,211,16

	vpternlogq	$0x96,%zmm17,%zmm10,%zmm7
	vpternlogq	$0x96,%zmm13,%zmm1,%zmm6
	vpternlogq	$0x96,%zmm15,%zmm9,%zmm8
	vpternlogq	$0x96,%zmm18,%zmm12,%zmm7

	vpsrldq	$8,%zmm7,%zmm1
	vpslldq	$8,%zmm7,%zmm9
	vpxorq	%zmm1,%zmm6,%zmm6
	vpxorq	%zmm9,%zmm8,%zmm8
	vextracti64x4	$1,%zmm6,%ymm1
	vpxorq	%ymm1,%ymm6,%ymm6
	vextracti32x4	$1,%ymm6,%xmm1
	vpxorq	%xmm1,%xmm6,%xmm6
	vextracti64x4	$1,%zmm8,%ymm9
	vpxorq	%ymm9,%ymm8,%ymm8
	vextracti32x4	$1,%ymm8,%xmm9
	vpxorq	%xmm9,%xmm8,%xmm8
	vmovdqa64	POLY2(%rip),%xmm10


.byte	98,211,45,8,68,200,1
	vpslldq	$8,%xmm1,%xmm1
	vpxorq	%xmm1,%xmm8,%xmm1


.byte	98,115,45,8,68,201,0
	vpsrldq	$4,%xmm9,%xmm9
.byte	98,115,45,8,68,241,16
	vpslldq	$4,%xmm14,%xmm14
	vpternlogq	$0x96,%xmm6,%xmm9,%xmm14

	subq	$512,%r11
	je	.L_CALC_AAD_done_hEgxyDlCngwrfFe

	addq	$512,%r10
	jmp	.L_less_than_16x16_hEgxyDlCngwrfFe

.L_less_than_32x16_hEgxyDlCngwrfFe:
	cmpq	$256,%r11
	jl	.L_less_than_16x16_hEgxyDlCngwrfFe

	vmovdqu64	0(%r10),%zmm11
	vmovdqu64	64(%r10),%zmm3
	vmovdqu64	128(%r10),%zmm4
	vmovdqu64	192(%r10),%zmm5
	vpshufb	%zmm16,%zmm11,%zmm11
	vpshufb	%zmm16,%zmm3,%zmm3
	vpshufb	%zmm16,%zmm4,%zmm4
	vpshufb	%zmm16,%zmm5,%zmm5
	vpxorq	%zmm14,%zmm11,%zmm11
	vmovdqu64	0(%rsi),%zmm19
.byte	98,179,37,72,68,203,17
.byte	98,51,37,72,68,203,0
.byte	98,51,37,72,68,211,1
.byte	98,51,37,72,68,227,16
	vmovdqu64	64(%rsi),%zmm19
.byte	98,51,101,72,68,235,17
.byte	98,51,101,72,68,251,0
.byte	98,163,101,72,68,203,1
.byte	98,163,101,72,68,211,16
	vpxorq	%zmm17,%zmm10,%zmm7
	vpxorq	%zmm13,%zmm1,%zmm6
	vpxorq	%zmm15,%zmm9,%zmm8
	vpternlogq	$0x96,%zmm18,%zmm12,%zmm7
	vmovdqu64	128(%rsi),%zmm19
.byte	98,179,93,72,68,203,17
.byte	98,51,93,72,68,203,0
.byte	98,51,93,72,68,211,1
.byte	98,51,93,72,68,227,16
	vmovdqu64	192(%rsi),%zmm19
.byte	98,51,85,72,68,235,17
.byte	98,51,85,72,68,251,0
.byte	98,163,85,72,68,203,1
.byte	98,163,85,72,68,211,16

	vpternlogq	$0x96,%zmm17,%zmm10,%zmm7
	vpternlogq	$0x96,%zmm13,%zmm1,%zmm6
	vpternlogq	$0x96,%zmm15,%zmm9,%zmm8
	vpternlogq	$0x96,%zmm18,%zmm12,%zmm7

	vpsrldq	$8,%zmm7,%zmm1
	vpslldq	$8,%zmm7,%zmm9
	vpxorq	%zmm1,%zmm6,%zmm6
	vpxorq	%zmm9,%zmm8,%zmm8
	vextracti64x4	$1,%zmm6,%ymm1
	vpxorq	%ymm1,%ymm6,%ymm6
	vextracti32x4	$1,%ymm6,%xmm1
	vpxorq	%xmm1,%xmm6,%xmm6
	vextracti64x4	$1,%zmm8,%ymm9
	vpxorq	%ymm9,%ymm8,%ymm8
	vextracti32x4	$1,%ymm8,%xmm9
	vpxorq	%xmm9,%xmm8,%xmm8
	vmovdqa64	POLY2(%rip),%xmm10


.byte	98,211,45,8,68,200,1
	vpslldq	$8,%xmm1,%xmm1
	vpxorq	%xmm1,%xmm8,%xmm1


.byte	98,115,45,8,68,201,0
	vpsrldq	$4,%xmm9,%xmm9
.byte	98,115,45,8,68,241,16
	vpslldq	$4,%xmm14,%xmm14
	vpternlogq	$0x96,%xmm6,%xmm9,%xmm14

	subq	$256,%r11
	je	.L_CALC_AAD_done_hEgxyDlCngwrfFe

	addq	$256,%r10

.L_less_than_16x16_hEgxyDlCngwrfFe:

	leaq	byte64_len_to_mask_table(%rip),%r12
	leaq	(%r12,%r11,8),%r12


	addl	$15,%r11d
	shrl	$4,%r11d
	cmpl	$2,%r11d
	jb	.L_AAD_blocks_1_hEgxyDlCngwrfFe
	je	.L_AAD_blocks_2_hEgxyDlCngwrfFe
	cmpl	$4,%r11d
	jb	.L_AAD_blocks_3_hEgxyDlCngwrfFe
	je	.L_AAD_blocks_4_hEgxyDlCngwrfFe
	cmpl	$6,%r11d
	jb	.L_AAD_blocks_5_hEgxyDlCngwrfFe
	je	.L_AAD_blocks_6_hEgxyDlCngwrfFe
	cmpl	$8,%r11d
	jb	.L_AAD_blocks_7_hEgxyDlCngwrfFe
	je	.L_AAD_blocks_8_hEgxyDlCngwrfFe
	cmpl	$10,%r11d
	jb	.L_AAD_blocks_9_hEgxyDlCngwrfFe
	je	.L_AAD_blocks_10_hEgxyDlCngwrfFe
	cmpl	$12,%r11d
	jb	.L_AAD_blocks_11_hEgxyDlCngwrfFe
	je	.L_AAD_blocks_12_hEgxyDlCngwrfFe
	cmpl	$14,%r11d
	jb	.L_AAD_blocks_13_hEgxyDlCngwrfFe
	je	.L_AAD_blocks_14_hEgxyDlCngwrfFe
	cmpl	$15,%r11d
	je	.L_AAD_blocks_15_hEgxyDlCngwrfFe
.L_AAD_blocks_16_hEgxyDlCngwrfFe:
	subq	$1536,%r12
	kmovq	(%r12),%k1
	vmovdqu8	0(%r10),%zmm11
	vmovdqu8	64(%r10),%zmm3
	vmovdqu8	128(%r10),%zmm4
	vmovdqu8	192(%r10),%zmm5{%k1}{z}
	vpshufb	%zmm16,%zmm11,%zmm11
	vpshufb	%zmm16,%zmm3,%zmm3
	vpshufb	%zmm16,%zmm4,%zmm4
	vpshufb	%zmm16,%zmm5,%zmm5
	vpxorq	%zmm14,%zmm11,%zmm11
	vmovdqu64	0(%rsi),%zmm15
.byte	98,211,37,72,68,207,17
.byte	98,211,37,72,68,247,0
.byte	98,211,37,72,68,255,1
.byte	98,83,37,72,68,199,16
	vmovdqu64	64(%rsi),%zmm15
.byte	98,83,101,72,68,207,17
.byte	98,83,101,72,68,215,0
.byte	98,83,101,72,68,231,1
.byte	98,83,101,72,68,239,16
	vmovdqu64	128(%rsi),%zmm15
.byte	98,83,93,72,68,223,17
.byte	98,211,93,72,68,223,0
	vpternlogq	$0x96,%zmm9,%zmm11,%zmm1
	vpternlogq	$0x96,%zmm10,%zmm3,%zmm6
.byte	98,83,93,72,68,223,1
.byte	98,211,93,72,68,223,16
	vpternlogq	$0x96,%zmm12,%zmm11,%zmm7
	vpternlogq	$0x96,%zmm13,%zmm3,%zmm8
	vmovdqu64	192(%rsi),%zmm15
.byte	98,83,85,72,68,207,17
.byte	98,83,85,72,68,215,0
.byte	98,83,85,72,68,231,1
.byte	98,83,85,72,68,239,16
	vpxorq	%zmm9,%zmm1,%zmm9
	vpxorq	%zmm10,%zmm6,%zmm10
	vpxorq	%zmm12,%zmm7,%zmm12
	vpxorq	%zmm13,%zmm8,%zmm13

	vpxorq	%zmm13,%zmm12,%zmm12
	vpsrldq	$8,%zmm12,%zmm7
	vpslldq	$8,%zmm12,%zmm8
	vpxorq	%zmm7,%zmm9,%zmm1
	vpxorq	%zmm8,%zmm10,%zmm6
	vextracti64x4	$1,%zmm1,%ymm12
	vpxorq	%ymm12,%ymm1,%ymm1
	vextracti32x4	$1,%ymm1,%xmm12
	vpxorq	%xmm12,%xmm1,%xmm1
	vextracti64x4	$1,%zmm6,%ymm13
	vpxorq	%ymm13,%ymm6,%ymm6
	vextracti32x4	$1,%ymm6,%xmm13
	vpxorq	%xmm13,%xmm6,%xmm6
	vmovdqa64	POLY2(%rip),%xmm15


.byte	98,243,5,8,68,254,1
	vpslldq	$8,%xmm7,%xmm7
	vpxorq	%xmm7,%xmm6,%xmm7


.byte	98,115,5,8,68,199,0
	vpsrldq	$4,%xmm8,%xmm8
.byte	98,115,5,8,68,247,16
	vpslldq	$4,%xmm14,%xmm14
	vpternlogq	$0x96,%xmm1,%xmm8,%xmm14

	jmp	.L_CALC_AAD_done_hEgxyDlCngwrfFe
.L_AAD_blocks_15_hEgxyDlCngwrfFe:
	subq	$1536,%r12
	kmovq	(%r12),%k1
	vmovdqu8	0(%r10),%zmm11
	vmovdqu8	64(%r10),%zmm3
	vmovdqu8	128(%r10),%zmm4
	vmovdqu8	192(%r10),%zmm5{%k1}{z}
	vpshufb	%zmm16,%zmm11,%zmm11
	vpshufb	%zmm16,%zmm3,%zmm3
	vpshufb	%zmm16,%zmm4,%zmm4
	vpshufb	%zmm16,%zmm5,%zmm5
	vpxorq	%zmm14,%zmm11,%zmm11
	vmovdqu64	16(%rsi),%zmm15
.byte	98,211,37,72,68,207,17
.byte	98,211,37,72,68,247,0
.byte	98,211,37,72,68,255,1
.byte	98,83,37,72,68,199,16
	vmovdqu64	80(%rsi),%zmm15
.byte	98,83,101,72,68,207,17
.byte	98,83,101,72,68,215,0
.byte	98,83,101,72,68,231,1
.byte	98,83,101,72,68,239,16
	vmovdqu64	144(%rsi),%zmm15
.byte	98,83,93,72,68,223,17
.byte	98,211,93,72,68,223,0
	vpternlogq	$0x96,%zmm1,%zmm11,%zmm9
	vpternlogq	$0x96,%zmm6,%zmm3,%zmm10
.byte	98,83,93,72,68,223,1
.byte	98,211,93,72,68,223,16
	vpternlogq	$0x96,%zmm7,%zmm11,%zmm12
	vpternlogq	$0x96,%zmm8,%zmm3,%zmm13
	vmovdqu64	208(%rsi),%ymm15
	vinserti64x2	$2,240(%rsi),%zmm15,%zmm15
.byte	98,211,85,72,68,255,1
.byte	98,83,85,72,68,199,16
.byte	98,211,85,72,68,207,17
.byte	98,211,85,72,68,247,0

	vpxorq	%zmm12,%zmm7,%zmm7
	vpxorq	%zmm13,%zmm8,%zmm8
	vpxorq	%zmm9,%zmm1,%zmm1
	vpxorq	%zmm10,%zmm6,%zmm6

	vpxorq	%zmm8,%zmm7,%zmm7
	vpsrldq	$8,%zmm7,%zmm12
	vpslldq	$8,%zmm7,%zmm13
	vpxorq	%zmm12,%zmm1,%zmm1
	vpxorq	%zmm13,%zmm6,%zmm6
	vextracti64x4	$1,%zmm1,%ymm12
	vpxorq	%ymm12,%ymm1,%ymm1
	vextracti32x4	$1,%ymm1,%xmm12
	vpxorq	%xmm12,%xmm1,%xmm1
	vextracti64x4	$1,%zmm6,%ymm13
	vpxorq	%ymm13,%ymm6,%ymm6
	vextracti32x4	$1,%ymm6,%xmm13
	vpxorq	%xmm13,%xmm6,%xmm6
	vmovdqa64	POLY2(%rip),%xmm15


.byte	98,243,5,8,68,254,1
	vpslldq	$8,%xmm7,%xmm7
	vpxorq	%xmm7,%xmm6,%xmm7


.byte	98,115,5,8,68,199,0
	vpsrldq	$4,%xmm8,%xmm8
.byte	98,115,5,8,68,247,16
	vpslldq	$4,%xmm14,%xmm14
	vpternlogq	$0x96,%xmm1,%xmm8,%xmm14

	jmp	.L_CALC_AAD_done_hEgxyDlCngwrfFe
.L_AAD_blocks_14_hEgxyDlCngwrfFe:
	subq	$1536,%r12
	kmovq	(%r12),%k1
	vmovdqu8	0(%r10),%zmm11
	vmovdqu8	64(%r10),%zmm3
	vmovdqu8	128(%r10),%zmm4
	vmovdqu8	192(%r10),%ymm5{%k1}{z}
	vpshufb	%zmm16,%zmm11,%zmm11
	vpshufb	%zmm16,%zmm3,%zmm3
	vpshufb	%zmm16,%zmm4,%zmm4
	vpshufb	%ymm16,%ymm5,%ymm5
	vpxorq	%zmm14,%zmm11,%zmm11
	vmovdqu64	32(%rsi),%zmm15
.byte	98,211,37,72,68,207,17
.byte	98,211,37,72,68,247,0
.byte	98,211,37,72,68,255,1
.byte	98,83,37,72,68,199,16
	vmovdqu64	96(%rsi),%zmm15
.byte	98,83,101,72,68,207,17
.byte	98,83,101,72,68,215,0
.byte	98,83,101,72,68,231,1
.byte	98,83,101,72,68,239,16
	vmovdqu64	160(%rsi),%zmm15
.byte	98,83,93,72,68,223,17
.byte	98,211,93,72,68,223,0
	vpternlogq	$0x96,%zmm1,%zmm11,%zmm9
	vpternlogq	$0x96,%zmm6,%zmm3,%zmm10
.byte	98,83,93,72,68,223,1
.byte	98,211,93,72,68,223,16
	vpternlogq	$0x96,%zmm7,%zmm11,%zmm12
	vpternlogq	$0x96,%zmm8,%zmm3,%zmm13
	vmovdqu64	224(%rsi),%ymm15
.byte	98,211,85,40,68,255,1
.byte	98,83,85,40,68,199,16
.byte	98,211,85,40,68,207,17
.byte	98,211,85,40,68,247,0

	vpxorq	%zmm12,%zmm7,%zmm7
	vpxorq	%zmm13,%zmm8,%zmm8
	vpxorq	%zmm9,%zmm1,%zmm1
	vpxorq	%zmm10,%zmm6,%zmm6

	vpxorq	%zmm8,%zmm7,%zmm7
	vpsrldq	$8,%zmm7,%zmm12
	vpslldq	$8,%zmm7,%zmm13
	vpxorq	%zmm12,%zmm1,%zmm1
	vpxorq	%zmm13,%zmm6,%zmm6
	vextracti64x4	$1,%zmm1,%ymm12
	vpxorq	%ymm12,%ymm1,%ymm1
	vextracti32x4	$1,%ymm1,%xmm12
	vpxorq	%xmm12,%xmm1,%xmm1
	vextracti64x4	$1,%zmm6,%ymm13
	vpxorq	%ymm13,%ymm6,%ymm6
	vextracti32x4	$1,%ymm6,%xmm13
	vpxorq	%xmm13,%xmm6,%xmm6
	vmovdqa64	POLY2(%rip),%xmm15


.byte	98,243,5,8,68,254,1
	vpslldq	$8,%xmm7,%xmm7
	vpxorq	%xmm7,%xmm6,%xmm7


.byte	98,115,5,8,68,199,0
	vpsrldq	$4,%xmm8,%xmm8
.byte	98,115,5,8,68,247,16
	vpslldq	$4,%xmm14,%xmm14
	vpternlogq	$0x96,%xmm1,%xmm8,%xmm14

	jmp	.L_CALC_AAD_done_hEgxyDlCngwrfFe
.L_AAD_blocks_13_hEgxyDlCngwrfFe:
	subq	$1536,%r12
	kmovq	(%r12),%k1
	vmovdqu8	0(%r10),%zmm11
	vmovdqu8	64(%r10),%zmm3
	vmovdqu8	128(%r10),%zmm4
	vmovdqu8	192(%r10),%xmm5{%k1}{z}
	vpshufb	%zmm16,%zmm11,%zmm11
	vpshufb	%zmm16,%zmm3,%zmm3
	vpshufb	%zmm16,%zmm4,%zmm4
	vpshufb	%xmm16,%xmm5,%xmm5
	vpxorq	%zmm14,%zmm11,%zmm11
	vmovdqu64	48(%rsi),%zmm15
.byte	98,211,37,72,68,207,17
.byte	98,211,37,72,68,247,0
.byte	98,211,37,72,68,255,1
.byte	98,83,37,72,68,199,16
	vmovdqu64	112(%rsi),%zmm15
.byte	98,83,101,72,68,207,17
.byte	98,83,101,72,68,215,0
.byte	98,83,101,72,68,231,1
.byte	98,83,101,72,68,239,16
	vmovdqu64	176(%rsi),%zmm15
.byte	98,83,93,72,68,223,17
.byte	98,211,93,72,68,223,0
	vpternlogq	$0x96,%zmm1,%zmm11,%zmm9
	vpternlogq	$0x96,%zmm6,%zmm3,%zmm10
.byte	98,83,93,72,68,223,1
.byte	98,211,93,72,68,223,16
	vpternlogq	$0x96,%zmm7,%zmm11,%zmm12
	vpternlogq	$0x96,%zmm8,%zmm3,%zmm13
	vmovdqu64	240(%rsi),%xmm15
.byte	98,211,85,8,68,255,1
.byte	98,83,85,8,68,199,16
.byte	98,211,85,8,68,207,17
.byte	98,211,85,8,68,247,0

	vpxorq	%zmm12,%zmm7,%zmm7
	vpxorq	%zmm13,%zmm8,%zmm8
	vpxorq	%zmm9,%zmm1,%zmm1
	vpxorq	%zmm10,%zmm6,%zmm6

	vpxorq	%zmm8,%zmm7,%zmm7
	vpsrldq	$8,%zmm7,%zmm12
	vpslldq	$8,%zmm7,%zmm13
	vpxorq	%zmm12,%zmm1,%zmm1
	vpxorq	%zmm13,%zmm6,%zmm6
	vextracti64x4	$1,%zmm1,%ymm12
	vpxorq	%ymm12,%ymm1,%ymm1
	vextracti32x4	$1,%ymm1,%xmm12
	vpxorq	%xmm12,%xmm1,%xmm1
	vextracti64x4	$1,%zmm6,%ymm13
	vpxorq	%ymm13,%ymm6,%ymm6
	vextracti32x4	$1,%ymm6,%xmm13
	vpxorq	%xmm13,%xmm6,%xmm6
	vmovdqa64	POLY2(%rip),%xmm15


.byte	98,243,5,8,68,254,1
	vpslldq	$8,%xmm7,%xmm7
	vpxorq	%xmm7,%xmm6,%xmm7


.byte	98,115,5,8,68,199,0
	vpsrldq	$4,%xmm8,%xmm8
.byte	98,115,5,8,68,247,16
	vpslldq	$4,%xmm14,%xmm14
	vpternlogq	$0x96,%xmm1,%xmm8,%xmm14

	jmp	.L_CALC_AAD_done_hEgxyDlCngwrfFe
.L_AAD_blocks_12_hEgxyDlCngwrfFe:
	subq	$1024,%r12
	kmovq	(%r12),%k1
	vmovdqu8	0(%r10),%zmm11
	vmovdqu8	64(%r10),%zmm3
	vmovdqu8	128(%r10),%zmm4{%k1}{z}
	vpshufb	%zmm16,%zmm11,%zmm11
	vpshufb	%zmm16,%zmm3,%zmm3
	vpshufb	%zmm16,%zmm4,%zmm4
	vpxorq	%zmm14,%zmm11,%zmm11
	vmovdqu64	64(%rsi),%zmm15
.byte	98,211,37,72,68,207,17
.byte	98,211,37,72,68,247,0
.byte	98,211,37,72,68,255,1
.byte	98,83,37,72,68,199,16
	vmovdqu64	128(%rsi),%zmm15
.byte	98,83,101,72,68,207,17
.byte	98,83,101,72,68,215,0
.byte	98,83,101,72,68,231,1
.byte	98,83,101,72,68,239,16
	vmovdqu64	192(%rsi),%zmm15
.byte	98,83,93,72,68,223,17
.byte	98,211,93,72,68,223,0
	vpternlogq	$0x96,%zmm1,%zmm11,%zmm9
	vpternlogq	$0x96,%zmm6,%zmm3,%zmm10
.byte	98,83,93,72,68,223,1
.byte	98,211,93,72,68,223,16
	vpternlogq	$0x96,%zmm7,%zmm11,%zmm12
	vpternlogq	$0x96,%zmm8,%zmm3,%zmm13

	vpxorq	%zmm13,%zmm12,%zmm12
	vpsrldq	$8,%zmm12,%zmm7
	vpslldq	$8,%zmm12,%zmm8
	vpxorq	%zmm7,%zmm9,%zmm1
	vpxorq	%zmm8,%zmm10,%zmm6
	vextracti64x4	$1,%zmm1,%ymm12
	vpxorq	%ymm12,%ymm1,%ymm1
	vextracti32x4	$1,%ymm1,%xmm12
	vpxorq	%xmm12,%xmm1,%xmm1
	vextracti64x4	$1,%zmm6,%ymm13
	vpxorq	%ymm13,%ymm6,%ymm6
	vextracti32x4	$1,%ymm6,%xmm13
	vpxorq	%xmm13,%xmm6,%xmm6
	vmovdqa64	POLY2(%rip),%xmm15


.byte	98,243,5,8,68,254,1
	vpslldq	$8,%xmm7,%xmm7
	vpxorq	%xmm7,%xmm6,%xmm7


.byte	98,115,5,8,68,199,0
	vpsrldq	$4,%xmm8,%xmm8
.byte	98,115,5,8,68,247,16
	vpslldq	$4,%xmm14,%xmm14
	vpternlogq	$0x96,%xmm1,%xmm8,%xmm14

	jmp	.L_CALC_AAD_done_hEgxyDlCngwrfFe
.L_AAD_blocks_11_hEgxyDlCngwrfFe:
	subq	$1024,%r12
	kmovq	(%r12),%k1
	vmovdqu8	0(%r10),%zmm11
	vmovdqu8	64(%r10),%zmm3
	vmovdqu8	128(%r10),%zmm4{%k1}{z}
	vpshufb	%zmm16,%zmm11,%zmm11
	vpshufb	%zmm16,%zmm3,%zmm3
	vpshufb	%zmm16,%zmm4,%zmm4
	vpxorq	%zmm14,%zmm11,%zmm11
	vmovdqu64	80(%rsi),%zmm15
.byte	98,211,37,72,68,207,17
.byte	98,211,37,72,68,247,0
.byte	98,211,37,72,68,255,1
.byte	98,83,37,72,68,199,16
	vmovdqu64	144(%rsi),%zmm15
.byte	98,83,101,72,68,207,17
.byte	98,83,101,72,68,215,0
.byte	98,83,101,72,68,231,1
.byte	98,83,101,72,68,239,16
	vpxorq	%zmm9,%zmm1,%zmm9
	vpxorq	%zmm10,%zmm6,%zmm10
	vpxorq	%zmm12,%zmm7,%zmm12
	vpxorq	%zmm13,%zmm8,%zmm13
	vmovdqu64	208(%rsi),%ymm15
	vinserti64x2	$2,240(%rsi),%zmm15,%zmm15
.byte	98,211,93,72,68,255,1
.byte	98,83,93,72,68,199,16
.byte	98,211,93,72,68,207,17
.byte	98,211,93,72,68,247,0

	vpxorq	%zmm12,%zmm7,%zmm7
	vpxorq	%zmm13,%zmm8,%zmm8
	vpxorq	%zmm9,%zmm1,%zmm1
	vpxorq	%zmm10,%zmm6,%zmm6

	vpxorq	%zmm8,%zmm7,%zmm7
	vpsrldq	$8,%zmm7,%zmm12
	vpslldq	$8,%zmm7,%zmm13
	vpxorq	%zmm12,%zmm1,%zmm1
	vpxorq	%zmm13,%zmm6,%zmm6
	vextracti64x4	$1,%zmm1,%ymm12
	vpxorq	%ymm12,%ymm1,%ymm1
	vextracti32x4	$1,%ymm1,%xmm12
	vpxorq	%xmm12,%xmm1,%xmm1
	vextracti64x4	$1,%zmm6,%ymm13
	vpxorq	%ymm13,%ymm6,%ymm6
	vextracti32x4	$1,%ymm6,%xmm13
	vpxorq	%xmm13,%xmm6,%xmm6
	vmovdqa64	POLY2(%rip),%xmm15


.byte	98,243,5,8,68,254,1
	vpslldq	$8,%xmm7,%xmm7
	vpxorq	%xmm7,%xmm6,%xmm7


.byte	98,115,5,8,68,199,0
	vpsrldq	$4,%xmm8,%xmm8
.byte	98,115,5,8,68,247,16
	vpslldq	$4,%xmm14,%xmm14
	vpternlogq	$0x96,%xmm1,%xmm8,%xmm14

	jmp	.L_CALC_AAD_done_hEgxyDlCngwrfFe
.L_AAD_blocks_10_hEgxyDlCngwrfFe:
	subq	$1024,%r12
	kmovq	(%r12),%k1
	vmovdqu8	0(%r10),%zmm11
	vmovdqu8	64(%r10),%zmm3
	vmovdqu8	128(%r10),%ymm4{%k1}{z}
	vpshufb	%zmm16,%zmm11,%zmm11
	vpshufb	%zmm16,%zmm3,%zmm3
	vpshufb	%ymm16,%ymm4,%ymm4
	vpxorq	%zmm14,%zmm11,%zmm11
	vmovdqu64	96(%rsi),%zmm15
.byte	98,211,37,72,68,207,17
.byte	98,211,37,72,68,247,0
.byte	98,211,37,72,68,255,1
.byte	98,83,37,72,68,199,16
	vmovdqu64	160(%rsi),%zmm15
.byte	98,83,101,72,68,207,17
.byte	98,83,101,72,68,215,0
.byte	98,83,101,72,68,231,1
.byte	98,83,101,72,68,239,16
	vpxorq	%zmm9,%zmm1,%zmm9
	vpxorq	%zmm10,%zmm6,%zmm10
	vpxorq	%zmm12,%zmm7,%zmm12
	vpxorq	%zmm13,%zmm8,%zmm13
	vmovdqu64	224(%rsi),%ymm15
.byte	98,211,93,40,68,255,1
.byte	98,83,93,40,68,199,16
.byte	98,211,93,40,68,207,17
.byte	98,211,93,40,68,247,0

	vpxorq	%zmm12,%zmm7,%zmm7
	vpxorq	%zmm13,%zmm8,%zmm8
	vpxorq	%zmm9,%zmm1,%zmm1
	vpxorq	%zmm10,%zmm6,%zmm6

	vpxorq	%zmm8,%zmm7,%zmm7
	vpsrldq	$8,%zmm7,%zmm12
	vpslldq	$8,%zmm7,%zmm13
	vpxorq	%zmm12,%zmm1,%zmm1
	vpxorq	%zmm13,%zmm6,%zmm6
	vextracti64x4	$1,%zmm1,%ymm12
	vpxorq	%ymm12,%ymm1,%ymm1
	vextracti32x4	$1,%ymm1,%xmm12
	vpxorq	%xmm12,%xmm1,%xmm1
	vextracti64x4	$1,%zmm6,%ymm13
	vpxorq	%ymm13,%ymm6,%ymm6
	vextracti32x4	$1,%ymm6,%xmm13
	vpxorq	%xmm13,%xmm6,%xmm6
	vmovdqa64	POLY2(%rip),%xmm15


.byte	98,243,5,8,68,254,1
	vpslldq	$8,%xmm7,%xmm7
	vpxorq	%xmm7,%xmm6,%xmm7


.byte	98,115,5,8,68,199,0
	vpsrldq	$4,%xmm8,%xmm8
.byte	98,115,5,8,68,247,16
	vpslldq	$4,%xmm14,%xmm14
	vpternlogq	$0x96,%xmm1,%xmm8,%xmm14

	jmp	.L_CALC_AAD_done_hEgxyDlCngwrfFe
.L_AAD_blocks_9_hEgxyDlCngwrfFe:
	subq	$1024,%r12
	kmovq	(%r12),%k1
	vmovdqu8	0(%r10),%zmm11
	vmovdqu8	64(%r10),%zmm3
	vmovdqu8	128(%r10),%xmm4{%k1}{z}
	vpshufb	%zmm16,%zmm11,%zmm11
	vpshufb	%zmm16,%zmm3,%zmm3
	vpshufb	%xmm16,%xmm4,%xmm4
	vpxorq	%zmm14,%zmm11,%zmm11
	vmovdqu64	112(%rsi),%zmm15
.byte	98,211,37,72,68,207,17
.byte	98,211,37,72,68,247,0
.byte	98,211,37,72,68,255,1
.byte	98,83,37,72,68,199,16
	vmovdqu64	176(%rsi),%zmm15
.byte	98,83,101,72,68,207,17
.byte	98,83,101,72,68,215,0
.byte	98,83,101,72,68,231,1
.byte	98,83,101,72,68,239,16
	vpxorq	%zmm9,%zmm1,%zmm9
	vpxorq	%zmm10,%zmm6,%zmm10
	vpxorq	%zmm12,%zmm7,%zmm12
	vpxorq	%zmm13,%zmm8,%zmm13
	vmovdqu64	240(%rsi),%xmm15
.byte	98,211,93,8,68,255,1
.byte	98,83,93,8,68,199,16
.byte	98,211,93,8,68,207,17
.byte	98,211,93,8,68,247,0

	vpxorq	%zmm12,%zmm7,%zmm7
	vpxorq	%zmm13,%zmm8,%zmm8
	vpxorq	%zmm9,%zmm1,%zmm1
	vpxorq	%zmm10,%zmm6,%zmm6

	vpxorq	%zmm8,%zmm7,%zmm7
	vpsrldq	$8,%zmm7,%zmm12
	vpslldq	$8,%zmm7,%zmm13
	vpxorq	%zmm12,%zmm1,%zmm1
	vpxorq	%zmm13,%zmm6,%zmm6
	vextracti64x4	$1,%zmm1,%ymm12
	vpxorq	%ymm12,%ymm1,%ymm1
	vextracti32x4	$1,%ymm1,%xmm12
	vpxorq	%xmm12,%xmm1,%xmm1
	vextracti64x4	$1,%zmm6,%ymm13
	vpxorq	%ymm13,%ymm6,%ymm6
	vextracti32x4	$1,%ymm6,%xmm13
	vpxorq	%xmm13,%xmm6,%xmm6
	vmovdqa64	POLY2(%rip),%xmm15


.byte	98,243,5,8,68,254,1
	vpslldq	$8,%xmm7,%xmm7
	vpxorq	%xmm7,%xmm6,%xmm7


.byte	98,115,5,8,68,199,0
	vpsrldq	$4,%xmm8,%xmm8
.byte	98,115,5,8,68,247,16
	vpslldq	$4,%xmm14,%xmm14
	vpternlogq	$0x96,%xmm1,%xmm8,%xmm14

	jmp	.L_CALC_AAD_done_hEgxyDlCngwrfFe
.L_AAD_blocks_8_hEgxyDlCngwrfFe:
	subq	$512,%r12
	kmovq	(%r12),%k1
	vmovdqu8	0(%r10),%zmm11
	vmovdqu8	64(%r10),%zmm3{%k1}{z}
	vpshufb	%zmm16,%zmm11,%zmm11
	vpshufb	%zmm16,%zmm3,%zmm3
	vpxorq	%zmm14,%zmm11,%zmm11
	vmovdqu64	128(%rsi),%zmm15
.byte	98,211,37,72,68,207,17
.byte	98,211,37,72,68,247,0
.byte	98,211,37,72,68,255,1
.byte	98,83,37,72,68,199,16
	vmovdqu64	192(%rsi),%zmm15
.byte	98,83,101,72,68,207,17
.byte	98,83,101,72,68,215,0
.byte	98,83,101,72,68,231,1
.byte	98,83,101,72,68,239,16
	vpxorq	%zmm9,%zmm1,%zmm9
	vpxorq	%zmm10,%zmm6,%zmm10
	vpxorq	%zmm12,%zmm7,%zmm12
	vpxorq	%zmm13,%zmm8,%zmm13

	vpxorq	%zmm13,%zmm12,%zmm12
	vpsrldq	$8,%zmm12,%zmm7
	vpslldq	$8,%zmm12,%zmm8
	vpxorq	%zmm7,%zmm9,%zmm1
	vpxorq	%zmm8,%zmm10,%zmm6
	vextracti64x4	$1,%zmm1,%ymm12
	vpxorq	%ymm12,%ymm1,%ymm1
	vextracti32x4	$1,%ymm1,%xmm12
	vpxorq	%xmm12,%xmm1,%xmm1
	vextracti64x4	$1,%zmm6,%ymm13
	vpxorq	%ymm13,%ymm6,%ymm6
	vextracti32x4	$1,%ymm6,%xmm13
	vpxorq	%xmm13,%xmm6,%xmm6
	vmovdqa64	POLY2(%rip),%xmm15


.byte	98,243,5,8,68,254,1
	vpslldq	$8,%xmm7,%xmm7
	vpxorq	%xmm7,%xmm6,%xmm7


.byte	98,115,5,8,68,199,0
	vpsrldq	$4,%xmm8,%xmm8
.byte	98,115,5,8,68,247,16
	vpslldq	$4,%xmm14,%xmm14
	vpternlogq	$0x96,%xmm1,%xmm8,%xmm14

	jmp	.L_CALC_AAD_done_hEgxyDlCngwrfFe
.L_AAD_blocks_7_hEgxyDlCngwrfFe:
	subq	$512,%r12
	kmovq	(%r12),%k1
	vmovdqu8	0(%r10),%zmm11
	vmovdqu8	64(%r10),%zmm3{%k1}{z}
	vpshufb	%zmm16,%zmm11,%zmm11
	vpshufb	%zmm16,%zmm3,%zmm3
	vpxorq	%zmm14,%zmm11,%zmm11
	vmovdqu64	144(%rsi),%zmm15
.byte	98,83,37,72,68,207,17
.byte	98,83,37,72,68,215,0
.byte	98,83,37,72,68,231,1
.byte	98,83,37,72,68,239,16
	vmovdqu64	208(%rsi),%ymm15
	vinserti64x2	$2,240(%rsi),%zmm15,%zmm15
.byte	98,211,101,72,68,255,1
.byte	98,83,101,72,68,199,16
.byte	98,211,101,72,68,207,17
.byte	98,211,101,72,68,247,0

	vpxorq	%zmm12,%zmm7,%zmm7
	vpxorq	%zmm13,%zmm8,%zmm8
	vpxorq	%zmm9,%zmm1,%zmm1
	vpxorq	%zmm10,%zmm6,%zmm6

	vpxorq	%zmm8,%zmm7,%zmm7
	vpsrldq	$8,%zmm7,%zmm12
	vpslldq	$8,%zmm7,%zmm13
	vpxorq	%zmm12,%zmm1,%zmm1
	vpxorq	%zmm13,%zmm6,%zmm6
	vextracti64x4	$1,%zmm1,%ymm12
	vpxorq	%ymm12,%ymm1,%ymm1
	vextracti32x4	$1,%ymm1,%xmm12
	vpxorq	%xmm12,%xmm1,%xmm1
	vextracti64x4	$1,%zmm6,%ymm13
	vpxorq	%ymm13,%ymm6,%ymm6
	vextracti32x4	$1,%ymm6,%xmm13
	vpxorq	%xmm13,%xmm6,%xmm6
	vmovdqa64	POLY2(%rip),%xmm15


.byte	98,243,5,8,68,254,1
	vpslldq	$8,%xmm7,%xmm7
	vpxorq	%xmm7,%xmm6,%xmm7


.byte	98,115,5,8,68,199,0
	vpsrldq	$4,%xmm8,%xmm8
.byte	98,115,5,8,68,247,16
	vpslldq	$4,%xmm14,%xmm14
	vpternlogq	$0x96,%xmm1,%xmm8,%xmm14

	jmp	.L_CALC_AAD_done_hEgxyDlCngwrfFe
.L_AAD_blocks_6_hEgxyDlCngwrfFe:
	subq	$512,%r12
	kmovq	(%r12),%k1
	vmovdqu8	0(%r10),%zmm11
	vmovdqu8	64(%r10),%ymm3{%k1}{z}
	vpshufb	%zmm16,%zmm11,%zmm11
	vpshufb	%ymm16,%ymm3,%ymm3
	vpxorq	%zmm14,%zmm11,%zmm11
	vmovdqu64	160(%rsi),%zmm15
.byte	98,83,37,72,68,207,17
.byte	98,83,37,72,68,215,0
.byte	98,83,37,72,68,231,1
.byte	98,83,37,72,68,239,16
	vmovdqu64	224(%rsi),%ymm15
.byte	98,211,101,40,68,255,1
.byte	98,83,101,40,68,199,16
.byte	98,211,101,40,68,207,17
.byte	98,211,101,40,68,247,0

	vpxorq	%zmm12,%zmm7,%zmm7
	vpxorq	%zmm13,%zmm8,%zmm8
	vpxorq	%zmm9,%zmm1,%zmm1
	vpxorq	%zmm10,%zmm6,%zmm6

	vpxorq	%zmm8,%zmm7,%zmm7
	vpsrldq	$8,%zmm7,%zmm12
	vpslldq	$8,%zmm7,%zmm13
	vpxorq	%zmm12,%zmm1,%zmm1
	vpxorq	%zmm13,%zmm6,%zmm6
	vextracti64x4	$1,%zmm1,%ymm12
	vpxorq	%ymm12,%ymm1,%ymm1
	vextracti32x4	$1,%ymm1,%xmm12
	vpxorq	%xmm12,%xmm1,%xmm1
	vextracti64x4	$1,%zmm6,%ymm13
	vpxorq	%ymm13,%ymm6,%ymm6
	vextracti32x4	$1,%ymm6,%xmm13
	vpxorq	%xmm13,%xmm6,%xmm6
	vmovdqa64	POLY2(%rip),%xmm15


.byte	98,243,5,8,68,254,1
	vpslldq	$8,%xmm7,%xmm7
	vpxorq	%xmm7,%xmm6,%xmm7


.byte	98,115,5,8,68,199,0
	vpsrldq	$4,%xmm8,%xmm8
.byte	98,115,5,8,68,247,16
	vpslldq	$4,%xmm14,%xmm14
	vpternlogq	$0x96,%xmm1,%xmm8,%xmm14

	jmp	.L_CALC_AAD_done_hEgxyDlCngwrfFe
.L_AAD_blocks_5_hEgxyDlCngwrfFe:
	subq	$512,%r12
	kmovq	(%r12),%k1
	vmovdqu8	0(%r10),%zmm11
	vmovdqu8	64(%r10),%xmm3{%k1}{z}
	vpshufb	%zmm16,%zmm11,%zmm11
	vpshufb	%xmm16,%xmm3,%xmm3
	vpxorq	%zmm14,%zmm11,%zmm11
	vmovdqu64	176(%rsi),%zmm15
.byte	98,83,37,72,68,207,17
.byte	98,83,37,72,68,215,0
.byte	98,83,37,72,68,231,1
.byte	98,83,37,72,68,239,16
	vmovdqu64	240(%rsi),%xmm15
.byte	98,211,101,8,68,255,1
.byte	98,83,101,8,68,199,16
.byte	98,211,101,8,68,207,17
.byte	98,211,101,8,68,247,0

	vpxorq	%zmm12,%zmm7,%zmm7
	vpxorq	%zmm13,%zmm8,%zmm8
	vpxorq	%zmm9,%zmm1,%zmm1
	vpxorq	%zmm10,%zmm6,%zmm6

	vpxorq	%zmm8,%zmm7,%zmm7
	vpsrldq	$8,%zmm7,%zmm12
	vpslldq	$8,%zmm7,%zmm13
	vpxorq	%zmm12,%zmm1,%zmm1
	vpxorq	%zmm13,%zmm6,%zmm6
	vextracti64x4	$1,%zmm1,%ymm12
	vpxorq	%ymm12,%ymm1,%ymm1
	vextracti32x4	$1,%ymm1,%xmm12
	vpxorq	%xmm12,%xmm1,%xmm1
	vextracti64x4	$1,%zmm6,%ymm13
	vpxorq	%ymm13,%ymm6,%ymm6
	vextracti32x4	$1,%ymm6,%xmm13
	vpxorq	%xmm13,%xmm6,%xmm6
	vmovdqa64	POLY2(%rip),%xmm15


.byte	98,243,5,8,68,254,1
	vpslldq	$8,%xmm7,%xmm7
	vpxorq	%xmm7,%xmm6,%xmm7


.byte	98,115,5,8,68,199,0
	vpsrldq	$4,%xmm8,%xmm8
.byte	98,115,5,8,68,247,16
	vpslldq	$4,%xmm14,%xmm14
	vpternlogq	$0x96,%xmm1,%xmm8,%xmm14

	jmp	.L_CALC_AAD_done_hEgxyDlCngwrfFe
.L_AAD_blocks_4_hEgxyDlCngwrfFe:
	kmovq	(%r12),%k1
	vmovdqu8	0(%r10),%zmm11{%k1}{z}
	vpshufb	%zmm16,%zmm11,%zmm11
	vpxorq	%zmm14,%zmm11,%zmm11
	vmovdqu64	192(%rsi),%zmm15
.byte	98,83,37,72,68,207,17
.byte	98,83,37,72,68,215,0
.byte	98,83,37,72,68,231,1
.byte	98,83,37,72,68,239,16

	vpxorq	%zmm13,%zmm12,%zmm12
	vpsrldq	$8,%zmm12,%zmm7
	vpslldq	$8,%zmm12,%zmm8
	vpxorq	%zmm7,%zmm9,%zmm1
	vpxorq	%zmm8,%zmm10,%zmm6
	vextracti64x4	$1,%zmm1,%ymm12
	vpxorq	%ymm12,%ymm1,%ymm1
	vextracti32x4	$1,%ymm1,%xmm12
	vpxorq	%xmm12,%xmm1,%xmm1
	vextracti64x4	$1,%zmm6,%ymm13
	vpxorq	%ymm13,%ymm6,%ymm6
	vextracti32x4	$1,%ymm6,%xmm13
	vpxorq	%xmm13,%xmm6,%xmm6
	vmovdqa64	POLY2(%rip),%xmm15


.byte	98,243,5,8,68,254,1
	vpslldq	$8,%xmm7,%xmm7
	vpxorq	%xmm7,%xmm6,%xmm7


.byte	98,115,5,8,68,199,0
	vpsrldq	$4,%xmm8,%xmm8
.byte	98,115,5,8,68,247,16
	vpslldq	$4,%xmm14,%xmm14
	vpternlogq	$0x96,%xmm1,%xmm8,%xmm14

	jmp	.L_CALC_AAD_done_hEgxyDlCngwrfFe
.L_AAD_blocks_3_hEgxyDlCngwrfFe:
	kmovq	(%r12),%k1
	vmovdqu8	0(%r10),%zmm11{%k1}{z}
	vpshufb	%zmm16,%zmm11,%zmm11
	vpxorq	%zmm14,%zmm11,%zmm11
	vmovdqu64	208(%rsi),%ymm15
	vinserti64x2	$2,240(%rsi),%zmm15,%zmm15
.byte	98,211,37,72,68,255,1
.byte	98,83,37,72,68,199,16
.byte	98,211,37,72,68,207,17
.byte	98,211,37,72,68,247,0

	vpxorq	%zmm8,%zmm7,%zmm7
	vpsrldq	$8,%zmm7,%zmm12
	vpslldq	$8,%zmm7,%zmm13
	vpxorq	%zmm12,%zmm1,%zmm1
	vpxorq	%zmm13,%zmm6,%zmm6
	vextracti64x4	$1,%zmm1,%ymm12
	vpxorq	%ymm12,%ymm1,%ymm1
	vextracti32x4	$1,%ymm1,%xmm12
	vpxorq	%xmm12,%xmm1,%xmm1
	vextracti64x4	$1,%zmm6,%ymm13
	vpxorq	%ymm13,%ymm6,%ymm6
	vextracti32x4	$1,%ymm6,%xmm13
	vpxorq	%xmm13,%xmm6,%xmm6
	vmovdqa64	POLY2(%rip),%xmm15


.byte	98,243,5,8,68,254,1
	vpslldq	$8,%xmm7,%xmm7
	vpxorq	%xmm7,%xmm6,%xmm7


.byte	98,115,5,8,68,199,0
	vpsrldq	$4,%xmm8,%xmm8
.byte	98,115,5,8,68,247,16
	vpslldq	$4,%xmm14,%xmm14
	vpternlogq	$0x96,%xmm1,%xmm8,%xmm14

	jmp	.L_CALC_AAD_done_hEgxyDlCngwrfFe
.L_AAD_blocks_2_hEgxyDlCngwrfFe:
	kmovq	(%r12),%k1
	vmovdqu8	0(%r10),%ymm11{%k1}{z}
	vpshufb	%ymm16,%ymm11,%ymm11
	vpxorq	%zmm14,%zmm11,%zmm11
	vmovdqu64	224(%rsi),%ymm15
.byte	98,211,37,40,68,255,1
.byte	98,83,37,40,68,199,16
.byte	98,211,37,40,68,207,17
.byte	98,211,37,40,68,247,0

	vpxorq	%zmm8,%zmm7,%zmm7
	vpsrldq	$8,%zmm7,%zmm12
	vpslldq	$8,%zmm7,%zmm13
	vpxorq	%zmm12,%zmm1,%zmm1
	vpxorq	%zmm13,%zmm6,%zmm6
	vextracti64x4	$1,%zmm1,%ymm12
	vpxorq	%ymm12,%ymm1,%ymm1
	vextracti32x4	$1,%ymm1,%xmm12
	vpxorq	%xmm12,%xmm1,%xmm1
	vextracti64x4	$1,%zmm6,%ymm13
	vpxorq	%ymm13,%ymm6,%ymm6
	vextracti32x4	$1,%ymm6,%xmm13
	vpxorq	%xmm13,%xmm6,%xmm6
	vmovdqa64	POLY2(%rip),%xmm15


.byte	98,243,5,8,68,254,1
	vpslldq	$8,%xmm7,%xmm7
	vpxorq	%xmm7,%xmm6,%xmm7


.byte	98,115,5,8,68,199,0
	vpsrldq	$4,%xmm8,%xmm8
.byte	98,115,5,8,68,247,16
	vpslldq	$4,%xmm14,%xmm14
	vpternlogq	$0x96,%xmm1,%xmm8,%xmm14

	jmp	.L_CALC_AAD_done_hEgxyDlCngwrfFe
.L_AAD_blocks_1_hEgxyDlCngwrfFe:
	kmovq	(%r12),%k1
	vmovdqu8	0(%r10),%xmm11{%k1}{z}
	vpshufb	%xmm16,%xmm11,%xmm11
	vpxorq	%zmm14,%zmm11,%zmm11
	vmovdqu64	240(%rsi),%xmm15
.byte	98,211,37,8,68,255,1
.byte	98,83,37,8,68,199,16
.byte	98,211,37,8,68,207,17
.byte	98,211,37,8,68,247,0

	vpxorq	%zmm8,%zmm7,%zmm7
	vpsrldq	$8,%zmm7,%zmm12
	vpslldq	$8,%zmm7,%zmm13
	vpxorq	%zmm12,%zmm1,%zmm1
	vpxorq	%zmm13,%zmm6,%zmm6
	vextracti64x4	$1,%zmm1,%ymm12
	vpxorq	%ymm12,%ymm1,%ymm1
	vextracti32x4	$1,%ymm1,%xmm12
	vpxorq	%xmm12,%xmm1,%xmm1
	vextracti64x4	$1,%zmm6,%ymm13
	vpxorq	%ymm13,%ymm6,%ymm6
	vextracti32x4	$1,%ymm6,%xmm13
	vpxorq	%xmm13,%xmm6,%xmm6
	vmovdqa64	POLY2(%rip),%xmm15


.byte	98,243,5,8,68,254,1
	vpslldq	$8,%xmm7,%xmm7
	vpxorq	%xmm7,%xmm6,%xmm7


.byte	98,115,5,8,68,199,0
	vpsrldq	$4,%xmm8,%xmm8
.byte	98,115,5,8,68,247,16
	vpslldq	$4,%xmm14,%xmm14
	vpternlogq	$0x96,%xmm1,%xmm8,%xmm14

.L_CALC_AAD_done_hEgxyDlCngwrfFe:
	vpshufb	SHUF_MASK(%rip),%xmm14,%xmm14
	vmovdqu64	%xmm14,(%rdi)
	cmpq	$256,%rcx
	jbe	.Lskip_hkeys_cleanup_EmbgEptodyewbFa
	vpxor	%xmm0,%xmm0,%xmm0
	vmovdqa64	%zmm0,0(%rsp)
	vmovdqa64	%zmm0,64(%rsp)
	vmovdqa64	%zmm0,128(%rsp)
	vmovdqa64	%zmm0,192(%rsp)
	vmovdqa64	%zmm0,256(%rsp)
	vmovdqa64	%zmm0,320(%rsp)
	vmovdqa64	%zmm0,384(%rsp)
	vmovdqa64	%zmm0,448(%rsp)
	vmovdqa64	%zmm0,512(%rsp)
	vmovdqa64	%zmm0,576(%rsp)
	vmovdqa64	%zmm0,640(%rsp)
	vmovdqa64	%zmm0,704(%rsp)
.Lskip_hkeys_cleanup_EmbgEptodyewbFa:
	vzeroupper
	leaq	(%rbp),%rsp
.cfi_def_cfa_register	%rsp
	popq	%r15
.cfi_adjust_cfa_offset	-8
.cfi_restore	%r15
	popq	%r14
.cfi_adjust_cfa_offset	-8
.cfi_restore	%r14
	popq	%r13
.cfi_adjust_cfa_offset	-8
.cfi_restore	%r13
	popq	%r12
.cfi_adjust_cfa_offset	-8
.cfi_restore	%r12
	popq	%rbp
.cfi_adjust_cfa_offset	-8
.cfi_restore	%rbp
	popq	%rbx
.cfi_adjust_cfa_offset	-8
.cfi_restore	%rbx
.Lexit_ghash:
	.byte	0xf3,0xc3
.Lghash_seh_end:
.cfi_endproc	
.size	gcm_ghash_avx512, .-gcm_ghash_avx512
.globl	gcm_setiv_avx512
.hidden gcm_setiv_avx512
.hidden	gcm_setiv_avx512
.type	gcm_setiv_avx512,@function
.align	32
gcm_setiv_avx512:
.cfi_startproc	
.Lsetiv_seh_begin:
.byte	243,15,30,250
	pushq	%rbx
.cfi_adjust_cfa_offset	8
.cfi_offset	%rbx,-16
.Lsetiv_seh_push_rbx:
	pushq	%rbp
.cfi_adjust_cfa_offset	8
.cfi_offset	%rbp,-24
.Lsetiv_seh_push_rbp:
	pushq	%r12
.cfi_adjust_cfa_offset	8
.cfi_offset	%r12,-32
.Lsetiv_seh_push_r12:
	pushq	%r13
.cfi_adjust_cfa_offset	8
.cfi_offset	%r13,-40
.Lsetiv_seh_push_r13:
	pushq	%r14
.cfi_adjust_cfa_offset	8
.cfi_offset	%r14,-48
.Lsetiv_seh_push_r14:
	pushq	%r15
.cfi_adjust_cfa_offset	8
.cfi_offset	%r15,-56
.Lsetiv_seh_push_r15:










	leaq	0(%rsp),%rbp
.cfi_def_cfa_register	%rbp
.Lsetiv_seh_setfp:

.Lsetiv_seh_prolog_end:
	subq	$820,%rsp
	andq	$(-64),%rsp
	cmpq	$12,%rcx
	je	iv_len_12_init_IV
	vpxor	%xmm2,%xmm2,%xmm2
	leaq	80(%rsi),%r13
	movq	%rdx,%r10
	movq	%rcx,%r11
	orq	%r11,%r11
	jz	.L_CALC_AAD_done_bnzFsuvmDknpsbp

	xorq	%rbx,%rbx
	vmovdqa64	SHUF_MASK(%rip),%zmm16

.L_get_AAD_loop48x16_bnzFsuvmDknpsbp:
	cmpq	$768,%r11
	jl	.L_exit_AAD_loop48x16_bnzFsuvmDknpsbp
	vmovdqu64	0(%r10),%zmm11
	vmovdqu64	64(%r10),%zmm3
	vmovdqu64	128(%r10),%zmm4
	vmovdqu64	192(%r10),%zmm5
	vpshufb	%zmm16,%zmm11,%zmm11
	vpshufb	%zmm16,%zmm3,%zmm3
	vpshufb	%zmm16,%zmm4,%zmm4
	vpshufb	%zmm16,%zmm5,%zmm5
	testq	%rbx,%rbx
	jnz	.L_skip_hkeys_precomputation_dBmbyqhifbmbobw

	vmovdqu64	192(%r13),%zmm1
	vmovdqu64	%zmm1,704(%rsp)

	vmovdqu64	128(%r13),%zmm9
	vmovdqu64	%zmm9,640(%rsp)


	vshufi64x2	$0x00,%zmm9,%zmm9,%zmm9

	vmovdqu64	64(%r13),%zmm10
	vmovdqu64	%zmm10,576(%rsp)

	vmovdqu64	0(%r13),%zmm12
	vmovdqu64	%zmm12,512(%rsp)

.byte	98,83,45,72,68,233,17
.byte	98,83,45,72,68,249,0
.byte	98,195,45,72,68,201,1
.byte	98,83,45,72,68,209,16
	vpxorq	%zmm17,%zmm10,%zmm10

	vpsrldq	$8,%zmm10,%zmm17
	vpslldq	$8,%zmm10,%zmm10
	vpxorq	%zmm17,%zmm13,%zmm13
	vpxorq	%zmm15,%zmm10,%zmm10



	vmovdqu64	POLY2(%rip),%zmm17

.byte	98,83,117,64,68,250,1
	vpslldq	$8,%zmm15,%zmm15
	vpxorq	%zmm15,%zmm10,%zmm10



.byte	98,83,117,64,68,250,0
	vpsrldq	$4,%zmm15,%zmm15
.byte	98,83,117,64,68,210,16
	vpslldq	$4,%zmm10,%zmm10

	vpternlogq	$0x96,%zmm15,%zmm13,%zmm10

	vmovdqu64	%zmm10,448(%rsp)

.byte	98,83,29,72,68,233,17
.byte	98,83,29,72,68,249,0
.byte	98,195,29,72,68,201,1
.byte	98,83,29,72,68,225,16
	vpxorq	%zmm17,%zmm12,%zmm12

	vpsrldq	$8,%zmm12,%zmm17
	vpslldq	$8,%zmm12,%zmm12
	vpxorq	%zmm17,%zmm13,%zmm13
	vpxorq	%zmm15,%zmm12,%zmm12



	vmovdqu64	POLY2(%rip),%zmm17

.byte	98,83,117,64,68,252,1
	vpslldq	$8,%zmm15,%zmm15
	vpxorq	%zmm15,%zmm12,%zmm12



.byte	98,83,117,64,68,252,0
	vpsrldq	$4,%zmm15,%zmm15
.byte	98,83,117,64,68,228,16
	vpslldq	$4,%zmm12,%zmm12

	vpternlogq	$0x96,%zmm15,%zmm13,%zmm12

	vmovdqu64	%zmm12,384(%rsp)

.byte	98,83,45,72,68,233,17
.byte	98,83,45,72,68,249,0
.byte	98,195,45,72,68,201,1
.byte	98,83,45,72,68,209,16
	vpxorq	%zmm17,%zmm10,%zmm10

	vpsrldq	$8,%zmm10,%zmm17
	vpslldq	$8,%zmm10,%zmm10
	vpxorq	%zmm17,%zmm13,%zmm13
	vpxorq	%zmm15,%zmm10,%zmm10



	vmovdqu64	POLY2(%rip),%zmm17

.byte	98,83,117,64,68,250,1
	vpslldq	$8,%zmm15,%zmm15
	vpxorq	%zmm15,%zmm10,%zmm10



.byte	98,83,117,64,68,250,0
	vpsrldq	$4,%zmm15,%zmm15
.byte	98,83,117,64,68,210,16
	vpslldq	$4,%zmm10,%zmm10

	vpternlogq	$0x96,%zmm15,%zmm13,%zmm10

	vmovdqu64	%zmm10,320(%rsp)

.byte	98,83,29,72,68,233,17
.byte	98,83,29,72,68,249,0
.byte	98,195,29,72,68,201,1
.byte	98,83,29,72,68,225,16
	vpxorq	%zmm17,%zmm12,%zmm12

	vpsrldq	$8,%zmm12,%zmm17
	vpslldq	$8,%zmm12,%zmm12
	vpxorq	%zmm17,%zmm13,%zmm13
	vpxorq	%zmm15,%zmm12,%zmm12



	vmovdqu64	POLY2(%rip),%zmm17

.byte	98,83,117,64,68,252,1
	vpslldq	$8,%zmm15,%zmm15
	vpxorq	%zmm15,%zmm12,%zmm12



.byte	98,83,117,64,68,252,0
	vpsrldq	$4,%zmm15,%zmm15
.byte	98,83,117,64,68,228,16
	vpslldq	$4,%zmm12,%zmm12

	vpternlogq	$0x96,%zmm15,%zmm13,%zmm12

	vmovdqu64	%zmm12,256(%rsp)

.byte	98,83,45,72,68,233,17
.byte	98,83,45,72,68,249,0
.byte	98,195,45,72,68,201,1
.byte	98,83,45,72,68,209,16
	vpxorq	%zmm17,%zmm10,%zmm10

	vpsrldq	$8,%zmm10,%zmm17
	vpslldq	$8,%zmm10,%zmm10
	vpxorq	%zmm17,%zmm13,%zmm13
	vpxorq	%zmm15,%zmm10,%zmm10



	vmovdqu64	POLY2(%rip),%zmm17

.byte	98,83,117,64,68,250,1
	vpslldq	$8,%zmm15,%zmm15
	vpxorq	%zmm15,%zmm10,%zmm10



.byte	98,83,117,64,68,250,0
	vpsrldq	$4,%zmm15,%zmm15
.byte	98,83,117,64,68,210,16
	vpslldq	$4,%zmm10,%zmm10

	vpternlogq	$0x96,%zmm15,%zmm13,%zmm10

	vmovdqu64	%zmm10,192(%rsp)

.byte	98,83,29,72,68,233,17
.byte	98,83,29,72,68,249,0
.byte	98,195,29,72,68,201,1
.byte	98,83,29,72,68,225,16
	vpxorq	%zmm17,%zmm12,%zmm12

	vpsrldq	$8,%zmm12,%zmm17
	vpslldq	$8,%zmm12,%zmm12
	vpxorq	%zmm17,%zmm13,%zmm13
	vpxorq	%zmm15,%zmm12,%zmm12



	vmovdqu64	POLY2(%rip),%zmm17

.byte	98,83,117,64,68,252,1
	vpslldq	$8,%zmm15,%zmm15
	vpxorq	%zmm15,%zmm12,%zmm12



.byte	98,83,117,64,68,252,0
	vpsrldq	$4,%zmm15,%zmm15
.byte	98,83,117,64,68,228,16
	vpslldq	$4,%zmm12,%zmm12

	vpternlogq	$0x96,%zmm15,%zmm13,%zmm12

	vmovdqu64	%zmm12,128(%rsp)

.byte	98,83,45,72,68,233,17
.byte	98,83,45,72,68,249,0
.byte	98,195,45,72,68,201,1
.byte	98,83,45,72,68,209,16
	vpxorq	%zmm17,%zmm10,%zmm10

	vpsrldq	$8,%zmm10,%zmm17
	vpslldq	$8,%zmm10,%zmm10
	vpxorq	%zmm17,%zmm13,%zmm13
	vpxorq	%zmm15,%zmm10,%zmm10



	vmovdqu64	POLY2(%rip),%zmm17

.byte	98,83,117,64,68,250,1
	vpslldq	$8,%zmm15,%zmm15
	vpxorq	%zmm15,%zmm10,%zmm10



.byte	98,83,117,64,68,250,0
	vpsrldq	$4,%zmm15,%zmm15
.byte	98,83,117,64,68,210,16
	vpslldq	$4,%zmm10,%zmm10

	vpternlogq	$0x96,%zmm15,%zmm13,%zmm10

	vmovdqu64	%zmm10,64(%rsp)

.byte	98,83,29,72,68,233,17
.byte	98,83,29,72,68,249,0
.byte	98,195,29,72,68,201,1
.byte	98,83,29,72,68,225,16
	vpxorq	%zmm17,%zmm12,%zmm12

	vpsrldq	$8,%zmm12,%zmm17
	vpslldq	$8,%zmm12,%zmm12
	vpxorq	%zmm17,%zmm13,%zmm13
	vpxorq	%zmm15,%zmm12,%zmm12



	vmovdqu64	POLY2(%rip),%zmm17

.byte	98,83,117,64,68,252,1
	vpslldq	$8,%zmm15,%zmm15
	vpxorq	%zmm15,%zmm12,%zmm12



.byte	98,83,117,64,68,252,0
	vpsrldq	$4,%zmm15,%zmm15
.byte	98,83,117,64,68,228,16
	vpslldq	$4,%zmm12,%zmm12

	vpternlogq	$0x96,%zmm15,%zmm13,%zmm12

	vmovdqu64	%zmm12,0(%rsp)
.L_skip_hkeys_precomputation_dBmbyqhifbmbobw:
	movq	$1,%rbx
	vpxorq	%zmm2,%zmm11,%zmm11
	vmovdqu64	0(%rsp),%zmm19
.byte	98,179,37,72,68,203,17
.byte	98,51,37,72,68,203,0
.byte	98,51,37,72,68,211,1
.byte	98,51,37,72,68,227,16
	vmovdqu64	64(%rsp),%zmm19
.byte	98,51,101,72,68,235,17
.byte	98,51,101,72,68,251,0
.byte	98,163,101,72,68,203,1
.byte	98,163,101,72,68,211,16
	vpxorq	%zmm17,%zmm10,%zmm7
	vpxorq	%zmm13,%zmm1,%zmm6
	vpxorq	%zmm15,%zmm9,%zmm8
	vpternlogq	$0x96,%zmm18,%zmm12,%zmm7
	vmovdqu64	128(%rsp),%zmm19
.byte	98,179,93,72,68,203,17
.byte	98,51,93,72,68,203,0
.byte	98,51,93,72,68,211,1
.byte	98,51,93,72,68,227,16
	vmovdqu64	192(%rsp),%zmm19
.byte	98,51,85,72,68,235,17
.byte	98,51,85,72,68,251,0
.byte	98,163,85,72,68,203,1
.byte	98,163,85,72,68,211,16

	vpternlogq	$0x96,%zmm17,%zmm10,%zmm7
	vpternlogq	$0x96,%zmm13,%zmm1,%zmm6
	vpternlogq	$0x96,%zmm15,%zmm9,%zmm8
	vpternlogq	$0x96,%zmm18,%zmm12,%zmm7
	vmovdqu64	256(%r10),%zmm11
	vmovdqu64	320(%r10),%zmm3
	vmovdqu64	384(%r10),%zmm4
	vmovdqu64	448(%r10),%zmm5
	vpshufb	%zmm16,%zmm11,%zmm11
	vpshufb	%zmm16,%zmm3,%zmm3
	vpshufb	%zmm16,%zmm4,%zmm4
	vpshufb	%zmm16,%zmm5,%zmm5
	vmovdqu64	256(%rsp),%zmm19
.byte	98,179,37,72,68,203,17
.byte	98,51,37,72,68,203,0
.byte	98,51,37,72,68,211,1
.byte	98,51,37,72,68,227,16
	vmovdqu64	320(%rsp),%zmm19
.byte	98,51,101,72,68,235,17
.byte	98,51,101,72,68,251,0
.byte	98,163,101,72,68,203,1
.byte	98,163,101,72,68,211,16
	vpternlogq	$0x96,%zmm17,%zmm10,%zmm7
	vpternlogq	$0x96,%zmm13,%zmm1,%zmm6
	vpternlogq	$0x96,%zmm15,%zmm9,%zmm8
	vpternlogq	$0x96,%zmm18,%zmm12,%zmm7
	vmovdqu64	384(%rsp),%zmm19
.byte	98,179,93,72,68,203,17
.byte	98,51,93,72,68,203,0
.byte	98,51,93,72,68,211,1
.byte	98,51,93,72,68,227,16
	vmovdqu64	448(%rsp),%zmm19
.byte	98,51,85,72,68,235,17
.byte	98,51,85,72,68,251,0
.byte	98,163,85,72,68,203,1
.byte	98,163,85,72,68,211,16

	vpternlogq	$0x96,%zmm17,%zmm10,%zmm7
	vpternlogq	$0x96,%zmm13,%zmm1,%zmm6
	vpternlogq	$0x96,%zmm15,%zmm9,%zmm8
	vpternlogq	$0x96,%zmm18,%zmm12,%zmm7
	vmovdqu64	512(%r10),%zmm11
	vmovdqu64	576(%r10),%zmm3
	vmovdqu64	640(%r10),%zmm4
	vmovdqu64	704(%r10),%zmm5
	vpshufb	%zmm16,%zmm11,%zmm11
	vpshufb	%zmm16,%zmm3,%zmm3
	vpshufb	%zmm16,%zmm4,%zmm4
	vpshufb	%zmm16,%zmm5,%zmm5
	vmovdqu64	512(%rsp),%zmm19
.byte	98,179,37,72,68,203,17
.byte	98,51,37,72,68,203,0
.byte	98,51,37,72,68,211,1
.byte	98,51,37,72,68,227,16
	vmovdqu64	576(%rsp),%zmm19
.byte	98,51,101,72,68,235,17
.byte	98,51,101,72,68,251,0
.byte	98,163,101,72,68,203,1
.byte	98,163,101,72,68,211,16
	vpternlogq	$0x96,%zmm17,%zmm10,%zmm7
	vpternlogq	$0x96,%zmm13,%zmm1,%zmm6
	vpternlogq	$0x96,%zmm15,%zmm9,%zmm8
	vpternlogq	$0x96,%zmm18,%zmm12,%zmm7
	vmovdqu64	640(%rsp),%zmm19
.byte	98,179,93,72,68,203,17
.byte	98,51,93,72,68,203,0
.byte	98,51,93,72,68,211,1
.byte	98,51,93,72,68,227,16
	vmovdqu64	704(%rsp),%zmm19
.byte	98,51,85,72,68,235,17
.byte	98,51,85,72,68,251,0
.byte	98,163,85,72,68,203,1
.byte	98,163,85,72,68,211,16

	vpternlogq	$0x96,%zmm17,%zmm10,%zmm7
	vpternlogq	$0x96,%zmm13,%zmm1,%zmm6
	vpternlogq	$0x96,%zmm15,%zmm9,%zmm8
	vpternlogq	$0x96,%zmm18,%zmm12,%zmm7

	vpsrldq	$8,%zmm7,%zmm1
	vpslldq	$8,%zmm7,%zmm9
	vpxorq	%zmm1,%zmm6,%zmm6
	vpxorq	%zmm9,%zmm8,%zmm8
	vextracti64x4	$1,%zmm6,%ymm1
	vpxorq	%ymm1,%ymm6,%ymm6
	vextracti32x4	$1,%ymm6,%xmm1
	vpxorq	%xmm1,%xmm6,%xmm6
	vextracti64x4	$1,%zmm8,%ymm9
	vpxorq	%ymm9,%ymm8,%ymm8
	vextracti32x4	$1,%ymm8,%xmm9
	vpxorq	%xmm9,%xmm8,%xmm8
	vmovdqa64	POLY2(%rip),%xmm10


.byte	98,211,45,8,68,200,1
	vpslldq	$8,%xmm1,%xmm1
	vpxorq	%xmm1,%xmm8,%xmm1


.byte	98,115,45,8,68,201,0
	vpsrldq	$4,%xmm9,%xmm9
.byte	98,243,45,8,68,209,16
	vpslldq	$4,%xmm2,%xmm2
	vpternlogq	$0x96,%xmm6,%xmm9,%xmm2

	subq	$768,%r11
	je	.L_CALC_AAD_done_bnzFsuvmDknpsbp

	addq	$768,%r10
	jmp	.L_get_AAD_loop48x16_bnzFsuvmDknpsbp

.L_exit_AAD_loop48x16_bnzFsuvmDknpsbp:

	cmpq	$512,%r11
	jl	.L_less_than_32x16_bnzFsuvmDknpsbp

	vmovdqu64	0(%r10),%zmm11
	vmovdqu64	64(%r10),%zmm3
	vmovdqu64	128(%r10),%zmm4
	vmovdqu64	192(%r10),%zmm5
	vpshufb	%zmm16,%zmm11,%zmm11
	vpshufb	%zmm16,%zmm3,%zmm3
	vpshufb	%zmm16,%zmm4,%zmm4
	vpshufb	%zmm16,%zmm5,%zmm5
	testq	%rbx,%rbx
	jnz	.L_skip_hkeys_precomputation_javBbvtBBkicjdB

	vmovdqu64	192(%r13),%zmm1
	vmovdqu64	%zmm1,704(%rsp)

	vmovdqu64	128(%r13),%zmm9
	vmovdqu64	%zmm9,640(%rsp)


	vshufi64x2	$0x00,%zmm9,%zmm9,%zmm9

	vmovdqu64	64(%r13),%zmm10
	vmovdqu64	%zmm10,576(%rsp)

	vmovdqu64	0(%r13),%zmm12
	vmovdqu64	%zmm12,512(%rsp)

.byte	98,83,45,72,68,233,17
.byte	98,83,45,72,68,249,0
.byte	98,195,45,72,68,201,1
.byte	98,83,45,72,68,209,16
	vpxorq	%zmm17,%zmm10,%zmm10

	vpsrldq	$8,%zmm10,%zmm17
	vpslldq	$8,%zmm10,%zmm10
	vpxorq	%zmm17,%zmm13,%zmm13
	vpxorq	%zmm15,%zmm10,%zmm10



	vmovdqu64	POLY2(%rip),%zmm17

.byte	98,83,117,64,68,250,1
	vpslldq	$8,%zmm15,%zmm15
	vpxorq	%zmm15,%zmm10,%zmm10



.byte	98,83,117,64,68,250,0
	vpsrldq	$4,%zmm15,%zmm15
.byte	98,83,117,64,68,210,16
	vpslldq	$4,%zmm10,%zmm10

	vpternlogq	$0x96,%zmm15,%zmm13,%zmm10

	vmovdqu64	%zmm10,448(%rsp)

.byte	98,83,29,72,68,233,17
.byte	98,83,29,72,68,249,0
.byte	98,195,29,72,68,201,1
.byte	98,83,29,72,68,225,16
	vpxorq	%zmm17,%zmm12,%zmm12

	vpsrldq	$8,%zmm12,%zmm17
	vpslldq	$8,%zmm12,%zmm12
	vpxorq	%zmm17,%zmm13,%zmm13
	vpxorq	%zmm15,%zmm12,%zmm12



	vmovdqu64	POLY2(%rip),%zmm17

.byte	98,83,117,64,68,252,1
	vpslldq	$8,%zmm15,%zmm15
	vpxorq	%zmm15,%zmm12,%zmm12



.byte	98,83,117,64,68,252,0
	vpsrldq	$4,%zmm15,%zmm15
.byte	98,83,117,64,68,228,16
	vpslldq	$4,%zmm12,%zmm12

	vpternlogq	$0x96,%zmm15,%zmm13,%zmm12

	vmovdqu64	%zmm12,384(%rsp)

.byte	98,83,45,72,68,233,17
.byte	98,83,45,72,68,249,0
.byte	98,195,45,72,68,201,1
.byte	98,83,45,72,68,209,16
	vpxorq	%zmm17,%zmm10,%zmm10

	vpsrldq	$8,%zmm10,%zmm17
	vpslldq	$8,%zmm10,%zmm10
	vpxorq	%zmm17,%zmm13,%zmm13
	vpxorq	%zmm15,%zmm10,%zmm10



	vmovdqu64	POLY2(%rip),%zmm17

.byte	98,83,117,64,68,250,1
	vpslldq	$8,%zmm15,%zmm15
	vpxorq	%zmm15,%zmm10,%zmm10



.byte	98,83,117,64,68,250,0
	vpsrldq	$4,%zmm15,%zmm15
.byte	98,83,117,64,68,210,16
	vpslldq	$4,%zmm10,%zmm10

	vpternlogq	$0x96,%zmm15,%zmm13,%zmm10

	vmovdqu64	%zmm10,320(%rsp)

.byte	98,83,29,72,68,233,17
.byte	98,83,29,72,68,249,0
.byte	98,195,29,72,68,201,1
.byte	98,83,29,72,68,225,16
	vpxorq	%zmm17,%zmm12,%zmm12

	vpsrldq	$8,%zmm12,%zmm17
	vpslldq	$8,%zmm12,%zmm12
	vpxorq	%zmm17,%zmm13,%zmm13
	vpxorq	%zmm15,%zmm12,%zmm12



	vmovdqu64	POLY2(%rip),%zmm17

.byte	98,83,117,64,68,252,1
	vpslldq	$8,%zmm15,%zmm15
	vpxorq	%zmm15,%zmm12,%zmm12



.byte	98,83,117,64,68,252,0
	vpsrldq	$4,%zmm15,%zmm15
.byte	98,83,117,64,68,228,16
	vpslldq	$4,%zmm12,%zmm12

	vpternlogq	$0x96,%zmm15,%zmm13,%zmm12

	vmovdqu64	%zmm12,256(%rsp)
.L_skip_hkeys_precomputation_javBbvtBBkicjdB:
	movq	$1,%rbx
	vpxorq	%zmm2,%zmm11,%zmm11
	vmovdqu64	256(%rsp),%zmm19
.byte	98,179,37,72,68,203,17
.byte	98,51,37,72,68,203,0
.byte	98,51,37,72,68,211,1
.byte	98,51,37,72,68,227,16
	vmovdqu64	320(%rsp),%zmm19
.byte	98,51,101,72,68,235,17
.byte	98,51,101,72,68,251,0
.byte	98,163,101,72,68,203,1
.byte	98,163,101,72,68,211,16
	vpxorq	%zmm17,%zmm10,%zmm7
	vpxorq	%zmm13,%zmm1,%zmm6
	vpxorq	%zmm15,%zmm9,%zmm8
	vpternlogq	$0x96,%zmm18,%zmm12,%zmm7
	vmovdqu64	384(%rsp),%zmm19
.byte	98,179,93,72,68,203,17
.byte	98,51,93,72,68,203,0
.byte	98,51,93,72,68,211,1
.byte	98,51,93,72,68,227,16
	vmovdqu64	448(%rsp),%zmm19
.byte	98,51,85,72,68,235,17
.byte	98,51,85,72,68,251,0
.byte	98,163,85,72,68,203,1
.byte	98,163,85,72,68,211,16

	vpternlogq	$0x96,%zmm17,%zmm10,%zmm7
	vpternlogq	$0x96,%zmm13,%zmm1,%zmm6
	vpternlogq	$0x96,%zmm15,%zmm9,%zmm8
	vpternlogq	$0x96,%zmm18,%zmm12,%zmm7
	vmovdqu64	256(%r10),%zmm11
	vmovdqu64	320(%r10),%zmm3
	vmovdqu64	384(%r10),%zmm4
	vmovdqu64	448(%r10),%zmm5
	vpshufb	%zmm16,%zmm11,%zmm11
	vpshufb	%zmm16,%zmm3,%zmm3
	vpshufb	%zmm16,%zmm4,%zmm4
	vpshufb	%zmm16,%zmm5,%zmm5
	vmovdqu64	512(%rsp),%zmm19
.byte	98,179,37,72,68,203,17
.byte	98,51,37,72,68,203,0
.byte	98,51,37,72,68,211,1
.byte	98,51,37,72,68,227,16
	vmovdqu64	576(%rsp),%zmm19
.byte	98,51,101,72,68,235,17
.byte	98,51,101,72,68,251,0
.byte	98,163,101,72,68,203,1
.byte	98,163,101,72,68,211,16
	vpternlogq	$0x96,%zmm17,%zmm10,%zmm7
	vpternlogq	$0x96,%zmm13,%zmm1,%zmm6
	vpternlogq	$0x96,%zmm15,%zmm9,%zmm8
	vpternlogq	$0x96,%zmm18,%zmm12,%zmm7
	vmovdqu64	640(%rsp),%zmm19
.byte	98,179,93,72,68,203,17
.byte	98,51,93,72,68,203,0
.byte	98,51,93,72,68,211,1
.byte	98,51,93,72,68,227,16
	vmovdqu64	704(%rsp),%zmm19
.byte	98,51,85,72,68,235,17
.byte	98,51,85,72,68,251,0
.byte	98,163,85,72,68,203,1
.byte	98,163,85,72,68,211,16

	vpternlogq	$0x96,%zmm17,%zmm10,%zmm7
	vpternlogq	$0x96,%zmm13,%zmm1,%zmm6
	vpternlogq	$0x96,%zmm15,%zmm9,%zmm8
	vpternlogq	$0x96,%zmm18,%zmm12,%zmm7

	vpsrldq	$8,%zmm7,%zmm1
	vpslldq	$8,%zmm7,%zmm9
	vpxorq	%zmm1,%zmm6,%zmm6
	vpxorq	%zmm9,%zmm8,%zmm8
	vextracti64x4	$1,%zmm6,%ymm1
	vpxorq	%ymm1,%ymm6,%ymm6
	vextracti32x4	$1,%ymm6,%xmm1
	vpxorq	%xmm1,%xmm6,%xmm6
	vextracti64x4	$1,%zmm8,%ymm9
	vpxorq	%ymm9,%ymm8,%ymm8
	vextracti32x4	$1,%ymm8,%xmm9
	vpxorq	%xmm9,%xmm8,%xmm8
	vmovdqa64	POLY2(%rip),%xmm10


.byte	98,211,45,8,68,200,1
	vpslldq	$8,%xmm1,%xmm1
	vpxorq	%xmm1,%xmm8,%xmm1


.byte	98,115,45,8,68,201,0
	vpsrldq	$4,%xmm9,%xmm9
.byte	98,243,45,8,68,209,16
	vpslldq	$4,%xmm2,%xmm2
	vpternlogq	$0x96,%xmm6,%xmm9,%xmm2

	subq	$512,%r11
	je	.L_CALC_AAD_done_bnzFsuvmDknpsbp

	addq	$512,%r10
	jmp	.L_less_than_16x16_bnzFsuvmDknpsbp

.L_less_than_32x16_bnzFsuvmDknpsbp:
	cmpq	$256,%r11
	jl	.L_less_than_16x16_bnzFsuvmDknpsbp

	vmovdqu64	0(%r10),%zmm11
	vmovdqu64	64(%r10),%zmm3
	vmovdqu64	128(%r10),%zmm4
	vmovdqu64	192(%r10),%zmm5
	vpshufb	%zmm16,%zmm11,%zmm11
	vpshufb	%zmm16,%zmm3,%zmm3
	vpshufb	%zmm16,%zmm4,%zmm4
	vpshufb	%zmm16,%zmm5,%zmm5
	vpxorq	%zmm2,%zmm11,%zmm11
	vmovdqu64	0(%r13),%zmm19
.byte	98,179,37,72,68,203,17
.byte	98,51,37,72,68,203,0
.byte	98,51,37,72,68,211,1
.byte	98,51,37,72,68,227,16
	vmovdqu64	64(%r13),%zmm19
.byte	98,51,101,72,68,235,17
.byte	98,51,101,72,68,251,0
.byte	98,163,101,72,68,203,1
.byte	98,163,101,72,68,211,16
	vpxorq	%zmm17,%zmm10,%zmm7
	vpxorq	%zmm13,%zmm1,%zmm6
	vpxorq	%zmm15,%zmm9,%zmm8
	vpternlogq	$0x96,%zmm18,%zmm12,%zmm7
	vmovdqu64	128(%r13),%zmm19
.byte	98,179,93,72,68,203,17
.byte	98,51,93,72,68,203,0
.byte	98,51,93,72,68,211,1
.byte	98,51,93,72,68,227,16
	vmovdqu64	192(%r13),%zmm19
.byte	98,51,85,72,68,235,17
.byte	98,51,85,72,68,251,0
.byte	98,163,85,72,68,203,1
.byte	98,163,85,72,68,211,16

	vpternlogq	$0x96,%zmm17,%zmm10,%zmm7
	vpternlogq	$0x96,%zmm13,%zmm1,%zmm6
	vpternlogq	$0x96,%zmm15,%zmm9,%zmm8
	vpternlogq	$0x96,%zmm18,%zmm12,%zmm7

	vpsrldq	$8,%zmm7,%zmm1
	vpslldq	$8,%zmm7,%zmm9
	vpxorq	%zmm1,%zmm6,%zmm6
	vpxorq	%zmm9,%zmm8,%zmm8
	vextracti64x4	$1,%zmm6,%ymm1
	vpxorq	%ymm1,%ymm6,%ymm6
	vextracti32x4	$1,%ymm6,%xmm1
	vpxorq	%xmm1,%xmm6,%xmm6
	vextracti64x4	$1,%zmm8,%ymm9
	vpxorq	%ymm9,%ymm8,%ymm8
	vextracti32x4	$1,%ymm8,%xmm9
	vpxorq	%xmm9,%xmm8,%xmm8
	vmovdqa64	POLY2(%rip),%xmm10


.byte	98,211,45,8,68,200,1
	vpslldq	$8,%xmm1,%xmm1
	vpxorq	%xmm1,%xmm8,%xmm1


.byte	98,115,45,8,68,201,0
	vpsrldq	$4,%xmm9,%xmm9
.byte	98,243,45,8,68,209,16
	vpslldq	$4,%xmm2,%xmm2
	vpternlogq	$0x96,%xmm6,%xmm9,%xmm2

	subq	$256,%r11
	je	.L_CALC_AAD_done_bnzFsuvmDknpsbp

	addq	$256,%r10

.L_less_than_16x16_bnzFsuvmDknpsbp:

	leaq	byte64_len_to_mask_table(%rip),%r12
	leaq	(%r12,%r11,8),%r12


	addl	$15,%r11d
	shrl	$4,%r11d
	cmpl	$2,%r11d
	jb	.L_AAD_blocks_1_bnzFsuvmDknpsbp
	je	.L_AAD_blocks_2_bnzFsuvmDknpsbp
	cmpl	$4,%r11d
	jb	.L_AAD_blocks_3_bnzFsuvmDknpsbp
	je	.L_AAD_blocks_4_bnzFsuvmDknpsbp
	cmpl	$6,%r11d
	jb	.L_AAD_blocks_5_bnzFsuvmDknpsbp
	je	.L_AAD_blocks_6_bnzFsuvmDknpsbp
	cmpl	$8,%r11d
	jb	.L_AAD_blocks_7_bnzFsuvmDknpsbp
	je	.L_AAD_blocks_8_bnzFsuvmDknpsbp
	cmpl	$10,%r11d
	jb	.L_AAD_blocks_9_bnzFsuvmDknpsbp
	je	.L_AAD_blocks_10_bnzFsuvmDknpsbp
	cmpl	$12,%r11d
	jb	.L_AAD_blocks_11_bnzFsuvmDknpsbp
	je	.L_AAD_blocks_12_bnzFsuvmDknpsbp
	cmpl	$14,%r11d
	jb	.L_AAD_blocks_13_bnzFsuvmDknpsbp
	je	.L_AAD_blocks_14_bnzFsuvmDknpsbp
	cmpl	$15,%r11d
	je	.L_AAD_blocks_15_bnzFsuvmDknpsbp
.L_AAD_blocks_16_bnzFsuvmDknpsbp:
	subq	$1536,%r12
	kmovq	(%r12),%k1
	vmovdqu8	0(%r10),%zmm11
	vmovdqu8	64(%r10),%zmm3
	vmovdqu8	128(%r10),%zmm4
	vmovdqu8	192(%r10),%zmm5{%k1}{z}
	vpshufb	%zmm16,%zmm11,%zmm11
	vpshufb	%zmm16,%zmm3,%zmm3
	vpshufb	%zmm16,%zmm4,%zmm4
	vpshufb	%zmm16,%zmm5,%zmm5
	vpxorq	%zmm2,%zmm11,%zmm11
	vmovdqu64	0(%r13),%zmm15
.byte	98,211,37,72,68,207,17
.byte	98,211,37,72,68,247,0
.byte	98,211,37,72,68,255,1
.byte	98,83,37,72,68,199,16
	vmovdqu64	64(%r13),%zmm15
.byte	98,83,101,72,68,207,17
.byte	98,83,101,72,68,215,0
.byte	98,83,101,72,68,231,1
.byte	98,83,101,72,68,239,16
	vmovdqu64	128(%r13),%zmm15
.byte	98,83,93,72,68,223,17
.byte	98,211,93,72,68,223,0
	vpternlogq	$0x96,%zmm9,%zmm11,%zmm1
	vpternlogq	$0x96,%zmm10,%zmm3,%zmm6
.byte	98,83,93,72,68,223,1
.byte	98,211,93,72,68,223,16
	vpternlogq	$0x96,%zmm12,%zmm11,%zmm7
	vpternlogq	$0x96,%zmm13,%zmm3,%zmm8
	vmovdqu64	192(%r13),%zmm15
.byte	98,83,85,72,68,207,17
.byte	98,83,85,72,68,215,0
.byte	98,83,85,72,68,231,1
.byte	98,83,85,72,68,239,16
	vpxorq	%zmm9,%zmm1,%zmm9
	vpxorq	%zmm10,%zmm6,%zmm10
	vpxorq	%zmm12,%zmm7,%zmm12
	vpxorq	%zmm13,%zmm8,%zmm13

	vpxorq	%zmm13,%zmm12,%zmm12
	vpsrldq	$8,%zmm12,%zmm7
	vpslldq	$8,%zmm12,%zmm8
	vpxorq	%zmm7,%zmm9,%zmm1
	vpxorq	%zmm8,%zmm10,%zmm6
	vextracti64x4	$1,%zmm1,%ymm12
	vpxorq	%ymm12,%ymm1,%ymm1
	vextracti32x4	$1,%ymm1,%xmm12
	vpxorq	%xmm12,%xmm1,%xmm1
	vextracti64x4	$1,%zmm6,%ymm13
	vpxorq	%ymm13,%ymm6,%ymm6
	vextracti32x4	$1,%ymm6,%xmm13
	vpxorq	%xmm13,%xmm6,%xmm6
	vmovdqa64	POLY2(%rip),%xmm15


.byte	98,243,5,8,68,254,1
	vpslldq	$8,%xmm7,%xmm7
	vpxorq	%xmm7,%xmm6,%xmm7


.byte	98,115,5,8,68,199,0
	vpsrldq	$4,%xmm8,%xmm8
.byte	98,243,5,8,68,215,16
	vpslldq	$4,%xmm2,%xmm2
	vpternlogq	$0x96,%xmm1,%xmm8,%xmm2

	jmp	.L_CALC_AAD_done_bnzFsuvmDknpsbp
.L_AAD_blocks_15_bnzFsuvmDknpsbp:
	subq	$1536,%r12
	kmovq	(%r12),%k1
	vmovdqu8	0(%r10),%zmm11
	vmovdqu8	64(%r10),%zmm3
	vmovdqu8	128(%r10),%zmm4
	vmovdqu8	192(%r10),%zmm5{%k1}{z}
	vpshufb	%zmm16,%zmm11,%zmm11
	vpshufb	%zmm16,%zmm3,%zmm3
	vpshufb	%zmm16,%zmm4,%zmm4
	vpshufb	%zmm16,%zmm5,%zmm5
	vpxorq	%zmm2,%zmm11,%zmm11
	vmovdqu64	16(%r13),%zmm15
.byte	98,211,37,72,68,207,17
.byte	98,211,37,72,68,247,0
.byte	98,211,37,72,68,255,1
.byte	98,83,37,72,68,199,16
	vmovdqu64	80(%r13),%zmm15
.byte	98,83,101,72,68,207,17
.byte	98,83,101,72,68,215,0
.byte	98,83,101,72,68,231,1
.byte	98,83,101,72,68,239,16
	vmovdqu64	144(%r13),%zmm15
.byte	98,83,93,72,68,223,17
.byte	98,211,93,72,68,223,0
	vpternlogq	$0x96,%zmm1,%zmm11,%zmm9
	vpternlogq	$0x96,%zmm6,%zmm3,%zmm10
.byte	98,83,93,72,68,223,1
.byte	98,211,93,72,68,223,16
	vpternlogq	$0x96,%zmm7,%zmm11,%zmm12
	vpternlogq	$0x96,%zmm8,%zmm3,%zmm13
	vmovdqu64	208(%r13),%ymm15
	vinserti64x2	$2,240(%r13),%zmm15,%zmm15
.byte	98,211,85,72,68,255,1
.byte	98,83,85,72,68,199,16
.byte	98,211,85,72,68,207,17
.byte	98,211,85,72,68,247,0

	vpxorq	%zmm12,%zmm7,%zmm7
	vpxorq	%zmm13,%zmm8,%zmm8
	vpxorq	%zmm9,%zmm1,%zmm1
	vpxorq	%zmm10,%zmm6,%zmm6

	vpxorq	%zmm8,%zmm7,%zmm7
	vpsrldq	$8,%zmm7,%zmm12
	vpslldq	$8,%zmm7,%zmm13
	vpxorq	%zmm12,%zmm1,%zmm1
	vpxorq	%zmm13,%zmm6,%zmm6
	vextracti64x4	$1,%zmm1,%ymm12
	vpxorq	%ymm12,%ymm1,%ymm1
	vextracti32x4	$1,%ymm1,%xmm12
	vpxorq	%xmm12,%xmm1,%xmm1
	vextracti64x4	$1,%zmm6,%ymm13
	vpxorq	%ymm13,%ymm6,%ymm6
	vextracti32x4	$1,%ymm6,%xmm13
	vpxorq	%xmm13,%xmm6,%xmm6
	vmovdqa64	POLY2(%rip),%xmm15


.byte	98,243,5,8,68,254,1
	vpslldq	$8,%xmm7,%xmm7
	vpxorq	%xmm7,%xmm6,%xmm7


.byte	98,115,5,8,68,199,0
	vpsrldq	$4,%xmm8,%xmm8
.byte	98,243,5,8,68,215,16
	vpslldq	$4,%xmm2,%xmm2
	vpternlogq	$0x96,%xmm1,%xmm8,%xmm2

	jmp	.L_CALC_AAD_done_bnzFsuvmDknpsbp
.L_AAD_blocks_14_bnzFsuvmDknpsbp:
	subq	$1536,%r12
	kmovq	(%r12),%k1
	vmovdqu8	0(%r10),%zmm11
	vmovdqu8	64(%r10),%zmm3
	vmovdqu8	128(%r10),%zmm4
	vmovdqu8	192(%r10),%ymm5{%k1}{z}
	vpshufb	%zmm16,%zmm11,%zmm11
	vpshufb	%zmm16,%zmm3,%zmm3
	vpshufb	%zmm16,%zmm4,%zmm4
	vpshufb	%ymm16,%ymm5,%ymm5
	vpxorq	%zmm2,%zmm11,%zmm11
	vmovdqu64	32(%r13),%zmm15
.byte	98,211,37,72,68,207,17
.byte	98,211,37,72,68,247,0
.byte	98,211,37,72,68,255,1
.byte	98,83,37,72,68,199,16
	vmovdqu64	96(%r13),%zmm15
.byte	98,83,101,72,68,207,17
.byte	98,83,101,72,68,215,0
.byte	98,83,101,72,68,231,1
.byte	98,83,101,72,68,239,16
	vmovdqu64	160(%r13),%zmm15
.byte	98,83,93,72,68,223,17
.byte	98,211,93,72,68,223,0
	vpternlogq	$0x96,%zmm1,%zmm11,%zmm9
	vpternlogq	$0x96,%zmm6,%zmm3,%zmm10
.byte	98,83,93,72,68,223,1
.byte	98,211,93,72,68,223,16
	vpternlogq	$0x96,%zmm7,%zmm11,%zmm12
	vpternlogq	$0x96,%zmm8,%zmm3,%zmm13
	vmovdqu64	224(%r13),%ymm15
.byte	98,211,85,40,68,255,1
.byte	98,83,85,40,68,199,16
.byte	98,211,85,40,68,207,17
.byte	98,211,85,40,68,247,0

	vpxorq	%zmm12,%zmm7,%zmm7
	vpxorq	%zmm13,%zmm8,%zmm8
	vpxorq	%zmm9,%zmm1,%zmm1
	vpxorq	%zmm10,%zmm6,%zmm6

	vpxorq	%zmm8,%zmm7,%zmm7
	vpsrldq	$8,%zmm7,%zmm12
	vpslldq	$8,%zmm7,%zmm13
	vpxorq	%zmm12,%zmm1,%zmm1
	vpxorq	%zmm13,%zmm6,%zmm6
	vextracti64x4	$1,%zmm1,%ymm12
	vpxorq	%ymm12,%ymm1,%ymm1
	vextracti32x4	$1,%ymm1,%xmm12
	vpxorq	%xmm12,%xmm1,%xmm1
	vextracti64x4	$1,%zmm6,%ymm13
	vpxorq	%ymm13,%ymm6,%ymm6
	vextracti32x4	$1,%ymm6,%xmm13
	vpxorq	%xmm13,%xmm6,%xmm6
	vmovdqa64	POLY2(%rip),%xmm15


.byte	98,243,5,8,68,254,1
	vpslldq	$8,%xmm7,%xmm7
	vpxorq	%xmm7,%xmm6,%xmm7


.byte	98,115,5,8,68,199,0
	vpsrldq	$4,%xmm8,%xmm8
.byte	98,243,5,8,68,215,16
	vpslldq	$4,%xmm2,%xmm2
	vpternlogq	$0x96,%xmm1,%xmm8,%xmm2

	jmp	.L_CALC_AAD_done_bnzFsuvmDknpsbp
.L_AAD_blocks_13_bnzFsuvmDknpsbp:
	subq	$1536,%r12
	kmovq	(%r12),%k1
	vmovdqu8	0(%r10),%zmm11
	vmovdqu8	64(%r10),%zmm3
	vmovdqu8	128(%r10),%zmm4
	vmovdqu8	192(%r10),%xmm5{%k1}{z}
	vpshufb	%zmm16,%zmm11,%zmm11
	vpshufb	%zmm16,%zmm3,%zmm3
	vpshufb	%zmm16,%zmm4,%zmm4
	vpshufb	%xmm16,%xmm5,%xmm5
	vpxorq	%zmm2,%zmm11,%zmm11
	vmovdqu64	48(%r13),%zmm15
.byte	98,211,37,72,68,207,17
.byte	98,211,37,72,68,247,0
.byte	98,211,37,72,68,255,1
.byte	98,83,37,72,68,199,16
	vmovdqu64	112(%r13),%zmm15
.byte	98,83,101,72,68,207,17
.byte	98,83,101,72,68,215,0
.byte	98,83,101,72,68,231,1
.byte	98,83,101,72,68,239,16
	vmovdqu64	176(%r13),%zmm15
.byte	98,83,93,72,68,223,17
.byte	98,211,93,72,68,223,0
	vpternlogq	$0x96,%zmm1,%zmm11,%zmm9
	vpternlogq	$0x96,%zmm6,%zmm3,%zmm10
.byte	98,83,93,72,68,223,1
.byte	98,211,93,72,68,223,16
	vpternlogq	$0x96,%zmm7,%zmm11,%zmm12
	vpternlogq	$0x96,%zmm8,%zmm3,%zmm13
	vmovdqu64	240(%r13),%xmm15
.byte	98,211,85,8,68,255,1
.byte	98,83,85,8,68,199,16
.byte	98,211,85,8,68,207,17
.byte	98,211,85,8,68,247,0

	vpxorq	%zmm12,%zmm7,%zmm7
	vpxorq	%zmm13,%zmm8,%zmm8
	vpxorq	%zmm9,%zmm1,%zmm1
	vpxorq	%zmm10,%zmm6,%zmm6

	vpxorq	%zmm8,%zmm7,%zmm7
	vpsrldq	$8,%zmm7,%zmm12
	vpslldq	$8,%zmm7,%zmm13
	vpxorq	%zmm12,%zmm1,%zmm1
	vpxorq	%zmm13,%zmm6,%zmm6
	vextracti64x4	$1,%zmm1,%ymm12
	vpxorq	%ymm12,%ymm1,%ymm1
	vextracti32x4	$1,%ymm1,%xmm12
	vpxorq	%xmm12,%xmm1,%xmm1
	vextracti64x4	$1,%zmm6,%ymm13
	vpxorq	%ymm13,%ymm6,%ymm6
	vextracti32x4	$1,%ymm6,%xmm13
	vpxorq	%xmm13,%xmm6,%xmm6
	vmovdqa64	POLY2(%rip),%xmm15


.byte	98,243,5,8,68,254,1
	vpslldq	$8,%xmm7,%xmm7
	vpxorq	%xmm7,%xmm6,%xmm7


.byte	98,115,5,8,68,199,0
	vpsrldq	$4,%xmm8,%xmm8
.byte	98,243,5,8,68,215,16
	vpslldq	$4,%xmm2,%xmm2
	vpternlogq	$0x96,%xmm1,%xmm8,%xmm2

	jmp	.L_CALC_AAD_done_bnzFsuvmDknpsbp
.L_AAD_blocks_12_bnzFsuvmDknpsbp:
	subq	$1024,%r12
	kmovq	(%r12),%k1
	vmovdqu8	0(%r10),%zmm11
	vmovdqu8	64(%r10),%zmm3
	vmovdqu8	128(%r10),%zmm4{%k1}{z}
	vpshufb	%zmm16,%zmm11,%zmm11
	vpshufb	%zmm16,%zmm3,%zmm3
	vpshufb	%zmm16,%zmm4,%zmm4
	vpxorq	%zmm2,%zmm11,%zmm11
	vmovdqu64	64(%r13),%zmm15
.byte	98,211,37,72,68,207,17
.byte	98,211,37,72,68,247,0
.byte	98,211,37,72,68,255,1
.byte	98,83,37,72,68,199,16
	vmovdqu64	128(%r13),%zmm15
.byte	98,83,101,72,68,207,17
.byte	98,83,101,72,68,215,0
.byte	98,83,101,72,68,231,1
.byte	98,83,101,72,68,239,16
	vmovdqu64	192(%r13),%zmm15
.byte	98,83,93,72,68,223,17
.byte	98,211,93,72,68,223,0
	vpternlogq	$0x96,%zmm1,%zmm11,%zmm9
	vpternlogq	$0x96,%zmm6,%zmm3,%zmm10
.byte	98,83,93,72,68,223,1
.byte	98,211,93,72,68,223,16
	vpternlogq	$0x96,%zmm7,%zmm11,%zmm12
	vpternlogq	$0x96,%zmm8,%zmm3,%zmm13

	vpxorq	%zmm13,%zmm12,%zmm12
	vpsrldq	$8,%zmm12,%zmm7
	vpslldq	$8,%zmm12,%zmm8
	vpxorq	%zmm7,%zmm9,%zmm1
	vpxorq	%zmm8,%zmm10,%zmm6
	vextracti64x4	$1,%zmm1,%ymm12
	vpxorq	%ymm12,%ymm1,%ymm1
	vextracti32x4	$1,%ymm1,%xmm12
	vpxorq	%xmm12,%xmm1,%xmm1
	vextracti64x4	$1,%zmm6,%ymm13
	vpxorq	%ymm13,%ymm6,%ymm6
	vextracti32x4	$1,%ymm6,%xmm13
	vpxorq	%xmm13,%xmm6,%xmm6
	vmovdqa64	POLY2(%rip),%xmm15


.byte	98,243,5,8,68,254,1
	vpslldq	$8,%xmm7,%xmm7
	vpxorq	%xmm7,%xmm6,%xmm7


.byte	98,115,5,8,68,199,0
	vpsrldq	$4,%xmm8,%xmm8
.byte	98,243,5,8,68,215,16
	vpslldq	$4,%xmm2,%xmm2
	vpternlogq	$0x96,%xmm1,%xmm8,%xmm2

	jmp	.L_CALC_AAD_done_bnzFsuvmDknpsbp
.L_AAD_blocks_11_bnzFsuvmDknpsbp:
	subq	$1024,%r12
	kmovq	(%r12),%k1
	vmovdqu8	0(%r10),%zmm11
	vmovdqu8	64(%r10),%zmm3
	vmovdqu8	128(%r10),%zmm4{%k1}{z}
	vpshufb	%zmm16,%zmm11,%zmm11
	vpshufb	%zmm16,%zmm3,%zmm3
	vpshufb	%zmm16,%zmm4,%zmm4
	vpxorq	%zmm2,%zmm11,%zmm11
	vmovdqu64	80(%r13),%zmm15
.byte	98,211,37,72,68,207,17
.byte	98,211,37,72,68,247,0
.byte	98,211,37,72,68,255,1
.byte	98,83,37,72,68,199,16
	vmovdqu64	144(%r13),%zmm15
.byte	98,83,101,72,68,207,17
.byte	98,83,101,72,68,215,0
.byte	98,83,101,72,68,231,1
.byte	98,83,101,72,68,239,16
	vpxorq	%zmm9,%zmm1,%zmm9
	vpxorq	%zmm10,%zmm6,%zmm10
	vpxorq	%zmm12,%zmm7,%zmm12
	vpxorq	%zmm13,%zmm8,%zmm13
	vmovdqu64	208(%r13),%ymm15
	vinserti64x2	$2,240(%r13),%zmm15,%zmm15
.byte	98,211,93,72,68,255,1
.byte	98,83,93,72,68,199,16
.byte	98,211,93,72,68,207,17
.byte	98,211,93,72,68,247,0

	vpxorq	%zmm12,%zmm7,%zmm7
	vpxorq	%zmm13,%zmm8,%zmm8
	vpxorq	%zmm9,%zmm1,%zmm1
	vpxorq	%zmm10,%zmm6,%zmm6

	vpxorq	%zmm8,%zmm7,%zmm7
	vpsrldq	$8,%zmm7,%zmm12
	vpslldq	$8,%zmm7,%zmm13
	vpxorq	%zmm12,%zmm1,%zmm1
	vpxorq	%zmm13,%zmm6,%zmm6
	vextracti64x4	$1,%zmm1,%ymm12
	vpxorq	%ymm12,%ymm1,%ymm1
	vextracti32x4	$1,%ymm1,%xmm12
	vpxorq	%xmm12,%xmm1,%xmm1
	vextracti64x4	$1,%zmm6,%ymm13
	vpxorq	%ymm13,%ymm6,%ymm6
	vextracti32x4	$1,%ymm6,%xmm13
	vpxorq	%xmm13,%xmm6,%xmm6
	vmovdqa64	POLY2(%rip),%xmm15


.byte	98,243,5,8,68,254,1
	vpslldq	$8,%xmm7,%xmm7
	vpxorq	%xmm7,%xmm6,%xmm7


.byte	98,115,5,8,68,199,0
	vpsrldq	$4,%xmm8,%xmm8
.byte	98,243,5,8,68,215,16
	vpslldq	$4,%xmm2,%xmm2
	vpternlogq	$0x96,%xmm1,%xmm8,%xmm2

	jmp	.L_CALC_AAD_done_bnzFsuvmDknpsbp
.L_AAD_blocks_10_bnzFsuvmDknpsbp:
	subq	$1024,%r12
	kmovq	(%r12),%k1
	vmovdqu8	0(%r10),%zmm11
	vmovdqu8	64(%r10),%zmm3
	vmovdqu8	128(%r10),%ymm4{%k1}{z}
	vpshufb	%zmm16,%zmm11,%zmm11
	vpshufb	%zmm16,%zmm3,%zmm3
	vpshufb	%ymm16,%ymm4,%ymm4
	vpxorq	%zmm2,%zmm11,%zmm11
	vmovdqu64	96(%r13),%zmm15
.byte	98,211,37,72,68,207,17
.byte	98,211,37,72,68,247,0
.byte	98,211,37,72,68,255,1
.byte	98,83,37,72,68,199,16
	vmovdqu64	160(%r13),%zmm15
.byte	98,83,101,72,68,207,17
.byte	98,83,101,72,68,215,0
.byte	98,83,101,72,68,231,1
.byte	98,83,101,72,68,239,16
	vpxorq	%zmm9,%zmm1,%zmm9
	vpxorq	%zmm10,%zmm6,%zmm10
	vpxorq	%zmm12,%zmm7,%zmm12
	vpxorq	%zmm13,%zmm8,%zmm13
	vmovdqu64	224(%r13),%ymm15
.byte	98,211,93,40,68,255,1
.byte	98,83,93,40,68,199,16
.byte	98,211,93,40,68,207,17
.byte	98,211,93,40,68,247,0

	vpxorq	%zmm12,%zmm7,%zmm7
	vpxorq	%zmm13,%zmm8,%zmm8
	vpxorq	%zmm9,%zmm1,%zmm1
	vpxorq	%zmm10,%zmm6,%zmm6

	vpxorq	%zmm8,%zmm7,%zmm7
	vpsrldq	$8,%zmm7,%zmm12
	vpslldq	$8,%zmm7,%zmm13
	vpxorq	%zmm12,%zmm1,%zmm1
	vpxorq	%zmm13,%zmm6,%zmm6
	vextracti64x4	$1,%zmm1,%ymm12
	vpxorq	%ymm12,%ymm1,%ymm1
	vextracti32x4	$1,%ymm1,%xmm12
	vpxorq	%xmm12,%xmm1,%xmm1
	vextracti64x4	$1,%zmm6,%ymm13
	vpxorq	%ymm13,%ymm6,%ymm6
	vextracti32x4	$1,%ymm6,%xmm13
	vpxorq	%xmm13,%xmm6,%xmm6
	vmovdqa64	POLY2(%rip),%xmm15


.byte	98,243,5,8,68,254,1
	vpslldq	$8,%xmm7,%xmm7
	vpxorq	%xmm7,%xmm6,%xmm7


.byte	98,115,5,8,68,199,0
	vpsrldq	$4,%xmm8,%xmm8
.byte	98,243,5,8,68,215,16
	vpslldq	$4,%xmm2,%xmm2
	vpternlogq	$0x96,%xmm1,%xmm8,%xmm2

	jmp	.L_CALC_AAD_done_bnzFsuvmDknpsbp
.L_AAD_blocks_9_bnzFsuvmDknpsbp:
	subq	$1024,%r12
	kmovq	(%r12),%k1
	vmovdqu8	0(%r10),%zmm11
	vmovdqu8	64(%r10),%zmm3
	vmovdqu8	128(%r10),%xmm4{%k1}{z}
	vpshufb	%zmm16,%zmm11,%zmm11
	vpshufb	%zmm16,%zmm3,%zmm3
	vpshufb	%xmm16,%xmm4,%xmm4
	vpxorq	%zmm2,%zmm11,%zmm11
	vmovdqu64	112(%r13),%zmm15
.byte	98,211,37,72,68,207,17
.byte	98,211,37,72,68,247,0
.byte	98,211,37,72,68,255,1
.byte	98,83,37,72,68,199,16
	vmovdqu64	176(%r13),%zmm15
.byte	98,83,101,72,68,207,17
.byte	98,83,101,72,68,215,0
.byte	98,83,101,72,68,231,1
.byte	98,83,101,72,68,239,16
	vpxorq	%zmm9,%zmm1,%zmm9
	vpxorq	%zmm10,%zmm6,%zmm10
	vpxorq	%zmm12,%zmm7,%zmm12
	vpxorq	%zmm13,%zmm8,%zmm13
	vmovdqu64	240(%r13),%xmm15
.byte	98,211,93,8,68,255,1
.byte	98,83,93,8,68,199,16
.byte	98,211,93,8,68,207,17
.byte	98,211,93,8,68,247,0

	vpxorq	%zmm12,%zmm7,%zmm7
	vpxorq	%zmm13,%zmm8,%zmm8
	vpxorq	%zmm9,%zmm1,%zmm1
	vpxorq	%zmm10,%zmm6,%zmm6

	vpxorq	%zmm8,%zmm7,%zmm7
	vpsrldq	$8,%zmm7,%zmm12
	vpslldq	$8,%zmm7,%zmm13
	vpxorq	%zmm12,%zmm1,%zmm1
	vpxorq	%zmm13,%zmm6,%zmm6
	vextracti64x4	$1,%zmm1,%ymm12
	vpxorq	%ymm12,%ymm1,%ymm1
	vextracti32x4	$1,%ymm1,%xmm12
	vpxorq	%xmm12,%xmm1,%xmm1
	vextracti64x4	$1,%zmm6,%ymm13
	vpxorq	%ymm13,%ymm6,%ymm6
	vextracti32x4	$1,%ymm6,%xmm13
	vpxorq	%xmm13,%xmm6,%xmm6
	vmovdqa64	POLY2(%rip),%xmm15


.byte	98,243,5,8,68,254,1
	vpslldq	$8,%xmm7,%xmm7
	vpxorq	%xmm7,%xmm6,%xmm7


.byte	98,115,5,8,68,199,0
	vpsrldq	$4,%xmm8,%xmm8
.byte	98,243,5,8,68,215,16
	vpslldq	$4,%xmm2,%xmm2
	vpternlogq	$0x96,%xmm1,%xmm8,%xmm2

	jmp	.L_CALC_AAD_done_bnzFsuvmDknpsbp
.L_AAD_blocks_8_bnzFsuvmDknpsbp:
	subq	$512,%r12
	kmovq	(%r12),%k1
	vmovdqu8	0(%r10),%zmm11
	vmovdqu8	64(%r10),%zmm3{%k1}{z}
	vpshufb	%zmm16,%zmm11,%zmm11
	vpshufb	%zmm16,%zmm3,%zmm3
	vpxorq	%zmm2,%zmm11,%zmm11
	vmovdqu64	128(%r13),%zmm15
.byte	98,211,37,72,68,207,17
.byte	98,211,37,72,68,247,0
.byte	98,211,37,72,68,255,1
.byte	98,83,37,72,68,199,16
	vmovdqu64	192(%r13),%zmm15
.byte	98,83,101,72,68,207,17
.byte	98,83,101,72,68,215,0
.byte	98,83,101,72,68,231,1
.byte	98,83,101,72,68,239,16
	vpxorq	%zmm9,%zmm1,%zmm9
	vpxorq	%zmm10,%zmm6,%zmm10
	vpxorq	%zmm12,%zmm7,%zmm12
	vpxorq	%zmm13,%zmm8,%zmm13

	vpxorq	%zmm13,%zmm12,%zmm12
	vpsrldq	$8,%zmm12,%zmm7
	vpslldq	$8,%zmm12,%zmm8
	vpxorq	%zmm7,%zmm9,%zmm1
	vpxorq	%zmm8,%zmm10,%zmm6
	vextracti64x4	$1,%zmm1,%ymm12
	vpxorq	%ymm12,%ymm1,%ymm1
	vextracti32x4	$1,%ymm1,%xmm12
	vpxorq	%xmm12,%xmm1,%xmm1
	vextracti64x4	$1,%zmm6,%ymm13
	vpxorq	%ymm13,%ymm6,%ymm6
	vextracti32x4	$1,%ymm6,%xmm13
	vpxorq	%xmm13,%xmm6,%xmm6
	vmovdqa64	POLY2(%rip),%xmm15


.byte	98,243,5,8,68,254,1
	vpslldq	$8,%xmm7,%xmm7
	vpxorq	%xmm7,%xmm6,%xmm7


.byte	98,115,5,8,68,199,0
	vpsrldq	$4,%xmm8,%xmm8
.byte	98,243,5,8,68,215,16
	vpslldq	$4,%xmm2,%xmm2
	vpternlogq	$0x96,%xmm1,%xmm8,%xmm2

	jmp	.L_CALC_AAD_done_bnzFsuvmDknpsbp
.L_AAD_blocks_7_bnzFsuvmDknpsbp:
	subq	$512,%r12
	kmovq	(%r12),%k1
	vmovdqu8	0(%r10),%zmm11
	vmovdqu8	64(%r10),%zmm3{%k1}{z}
	vpshufb	%zmm16,%zmm11,%zmm11
	vpshufb	%zmm16,%zmm3,%zmm3
	vpxorq	%zmm2,%zmm11,%zmm11
	vmovdqu64	144(%r13),%zmm15
.byte	98,83,37,72,68,207,17
.byte	98,83,37,72,68,215,0
.byte	98,83,37,72,68,231,1
.byte	98,83,37,72,68,239,16
	vmovdqu64	208(%r13),%ymm15
	vinserti64x2	$2,240(%r13),%zmm15,%zmm15
.byte	98,211,101,72,68,255,1
.byte	98,83,101,72,68,199,16
.byte	98,211,101,72,68,207,17
.byte	98,211,101,72,68,247,0

	vpxorq	%zmm12,%zmm7,%zmm7
	vpxorq	%zmm13,%zmm8,%zmm8
	vpxorq	%zmm9,%zmm1,%zmm1
	vpxorq	%zmm10,%zmm6,%zmm6

	vpxorq	%zmm8,%zmm7,%zmm7
	vpsrldq	$8,%zmm7,%zmm12
	vpslldq	$8,%zmm7,%zmm13
	vpxorq	%zmm12,%zmm1,%zmm1
	vpxorq	%zmm13,%zmm6,%zmm6
	vextracti64x4	$1,%zmm1,%ymm12
	vpxorq	%ymm12,%ymm1,%ymm1
	vextracti32x4	$1,%ymm1,%xmm12
	vpxorq	%xmm12,%xmm1,%xmm1
	vextracti64x4	$1,%zmm6,%ymm13
	vpxorq	%ymm13,%ymm6,%ymm6
	vextracti32x4	$1,%ymm6,%xmm13
	vpxorq	%xmm13,%xmm6,%xmm6
	vmovdqa64	POLY2(%rip),%xmm15


.byte	98,243,5,8,68,254,1
	vpslldq	$8,%xmm7,%xmm7
	vpxorq	%xmm7,%xmm6,%xmm7


.byte	98,115,5,8,68,199,0
	vpsrldq	$4,%xmm8,%xmm8
.byte	98,243,5,8,68,215,16
	vpslldq	$4,%xmm2,%xmm2
	vpternlogq	$0x96,%xmm1,%xmm8,%xmm2

	jmp	.L_CALC_AAD_done_bnzFsuvmDknpsbp
.L_AAD_blocks_6_bnzFsuvmDknpsbp:
	subq	$512,%r12
	kmovq	(%r12),%k1
	vmovdqu8	0(%r10),%zmm11
	vmovdqu8	64(%r10),%ymm3{%k1}{z}
	vpshufb	%zmm16,%zmm11,%zmm11
	vpshufb	%ymm16,%ymm3,%ymm3
	vpxorq	%zmm2,%zmm11,%zmm11
	vmovdqu64	160(%r13),%zmm15
.byte	98,83,37,72,68,207,17
.byte	98,83,37,72,68,215,0
.byte	98,83,37,72,68,231,1
.byte	98,83,37,72,68,239,16
	vmovdqu64	224(%r13),%ymm15
.byte	98,211,101,40,68,255,1
.byte	98,83,101,40,68,199,16
.byte	98,211,101,40,68,207,17
.byte	98,211,101,40,68,247,0

	vpxorq	%zmm12,%zmm7,%zmm7
	vpxorq	%zmm13,%zmm8,%zmm8
	vpxorq	%zmm9,%zmm1,%zmm1
	vpxorq	%zmm10,%zmm6,%zmm6

	vpxorq	%zmm8,%zmm7,%zmm7
	vpsrldq	$8,%zmm7,%zmm12
	vpslldq	$8,%zmm7,%zmm13
	vpxorq	%zmm12,%zmm1,%zmm1
	vpxorq	%zmm13,%zmm6,%zmm6
	vextracti64x4	$1,%zmm1,%ymm12
	vpxorq	%ymm12,%ymm1,%ymm1
	vextracti32x4	$1,%ymm1,%xmm12
	vpxorq	%xmm12,%xmm1,%xmm1
	vextracti64x4	$1,%zmm6,%ymm13
	vpxorq	%ymm13,%ymm6,%ymm6
	vextracti32x4	$1,%ymm6,%xmm13
	vpxorq	%xmm13,%xmm6,%xmm6
	vmovdqa64	POLY2(%rip),%xmm15


.byte	98,243,5,8,68,254,1
	vpslldq	$8,%xmm7,%xmm7
	vpxorq	%xmm7,%xmm6,%xmm7


.byte	98,115,5,8,68,199,0
	vpsrldq	$4,%xmm8,%xmm8
.byte	98,243,5,8,68,215,16
	vpslldq	$4,%xmm2,%xmm2
	vpternlogq	$0x96,%xmm1,%xmm8,%xmm2

	jmp	.L_CALC_AAD_done_bnzFsuvmDknpsbp
.L_AAD_blocks_5_bnzFsuvmDknpsbp:
	subq	$512,%r12
	kmovq	(%r12),%k1
	vmovdqu8	0(%r10),%zmm11
	vmovdqu8	64(%r10),%xmm3{%k1}{z}
	vpshufb	%zmm16,%zmm11,%zmm11
	vpshufb	%xmm16,%xmm3,%xmm3
	vpxorq	%zmm2,%zmm11,%zmm11
	vmovdqu64	176(%r13),%zmm15
.byte	98,83,37,72,68,207,17
.byte	98,83,37,72,68,215,0
.byte	98,83,37,72,68,231,1
.byte	98,83,37,72,68,239,16
	vmovdqu64	240(%r13),%xmm15
.byte	98,211,101,8,68,255,1
.byte	98,83,101,8,68,199,16
.byte	98,211,101,8,68,207,17
.byte	98,211,101,8,68,247,0

	vpxorq	%zmm12,%zmm7,%zmm7
	vpxorq	%zmm13,%zmm8,%zmm8
	vpxorq	%zmm9,%zmm1,%zmm1
	vpxorq	%zmm10,%zmm6,%zmm6

	vpxorq	%zmm8,%zmm7,%zmm7
	vpsrldq	$8,%zmm7,%zmm12
	vpslldq	$8,%zmm7,%zmm13
	vpxorq	%zmm12,%zmm1,%zmm1
	vpxorq	%zmm13,%zmm6,%zmm6
	vextracti64x4	$1,%zmm1,%ymm12
	vpxorq	%ymm12,%ymm1,%ymm1
	vextracti32x4	$1,%ymm1,%xmm12
	vpxorq	%xmm12,%xmm1,%xmm1
	vextracti64x4	$1,%zmm6,%ymm13
	vpxorq	%ymm13,%ymm6,%ymm6
	vextracti32x4	$1,%ymm6,%xmm13
	vpxorq	%xmm13,%xmm6,%xmm6
	vmovdqa64	POLY2(%rip),%xmm15


.byte	98,243,5,8,68,254,1
	vpslldq	$8,%xmm7,%xmm7
	vpxorq	%xmm7,%xmm6,%xmm7


.byte	98,115,5,8,68,199,0
	vpsrldq	$4,%xmm8,%xmm8
.byte	98,243,5,8,68,215,16
	vpslldq	$4,%xmm2,%xmm2
	vpternlogq	$0x96,%xmm1,%xmm8,%xmm2

	jmp	.L_CALC_AAD_done_bnzFsuvmDknpsbp
.L_AAD_blocks_4_bnzFsuvmDknpsbp:
	kmovq	(%r12),%k1
	vmovdqu8	0(%r10),%zmm11{%k1}{z}
	vpshufb	%zmm16,%zmm11,%zmm11
	vpxorq	%zmm2,%zmm11,%zmm11
	vmovdqu64	192(%r13),%zmm15
.byte	98,83,37,72,68,207,17
.byte	98,83,37,72,68,215,0
.byte	98,83,37,72,68,231,1
.byte	98,83,37,72,68,239,16

	vpxorq	%zmm13,%zmm12,%zmm12
	vpsrldq	$8,%zmm12,%zmm7
	vpslldq	$8,%zmm12,%zmm8
	vpxorq	%zmm7,%zmm9,%zmm1
	vpxorq	%zmm8,%zmm10,%zmm6
	vextracti64x4	$1,%zmm1,%ymm12
	vpxorq	%ymm12,%ymm1,%ymm1
	vextracti32x4	$1,%ymm1,%xmm12
	vpxorq	%xmm12,%xmm1,%xmm1
	vextracti64x4	$1,%zmm6,%ymm13
	vpxorq	%ymm13,%ymm6,%ymm6
	vextracti32x4	$1,%ymm6,%xmm13
	vpxorq	%xmm13,%xmm6,%xmm6
	vmovdqa64	POLY2(%rip),%xmm15


.byte	98,243,5,8,68,254,1
	vpslldq	$8,%xmm7,%xmm7
	vpxorq	%xmm7,%xmm6,%xmm7


.byte	98,115,5,8,68,199,0
	vpsrldq	$4,%xmm8,%xmm8
.byte	98,243,5,8,68,215,16
	vpslldq	$4,%xmm2,%xmm2
	vpternlogq	$0x96,%xmm1,%xmm8,%xmm2

	jmp	.L_CALC_AAD_done_bnzFsuvmDknpsbp
.L_AAD_blocks_3_bnzFsuvmDknpsbp:
	kmovq	(%r12),%k1
	vmovdqu8	0(%r10),%zmm11{%k1}{z}
	vpshufb	%zmm16,%zmm11,%zmm11
	vpxorq	%zmm2,%zmm11,%zmm11
	vmovdqu64	208(%r13),%ymm15
	vinserti64x2	$2,240(%r13),%zmm15,%zmm15
.byte	98,211,37,72,68,255,1
.byte	98,83,37,72,68,199,16
.byte	98,211,37,72,68,207,17
.byte	98,211,37,72,68,247,0

	vpxorq	%zmm8,%zmm7,%zmm7
	vpsrldq	$8,%zmm7,%zmm12
	vpslldq	$8,%zmm7,%zmm13
	vpxorq	%zmm12,%zmm1,%zmm1
	vpxorq	%zmm13,%zmm6,%zmm6
	vextracti64x4	$1,%zmm1,%ymm12
	vpxorq	%ymm12,%ymm1,%ymm1
	vextracti32x4	$1,%ymm1,%xmm12
	vpxorq	%xmm12,%xmm1,%xmm1
	vextracti64x4	$1,%zmm6,%ymm13
	vpxorq	%ymm13,%ymm6,%ymm6
	vextracti32x4	$1,%ymm6,%xmm13
	vpxorq	%xmm13,%xmm6,%xmm6
	vmovdqa64	POLY2(%rip),%xmm15


.byte	98,243,5,8,68,254,1
	vpslldq	$8,%xmm7,%xmm7
	vpxorq	%xmm7,%xmm6,%xmm7


.byte	98,115,5,8,68,199,0
	vpsrldq	$4,%xmm8,%xmm8
.byte	98,243,5,8,68,215,16
	vpslldq	$4,%xmm2,%xmm2
	vpternlogq	$0x96,%xmm1,%xmm8,%xmm2

	jmp	.L_CALC_AAD_done_bnzFsuvmDknpsbp
.L_AAD_blocks_2_bnzFsuvmDknpsbp:
	kmovq	(%r12),%k1
	vmovdqu8	0(%r10),%ymm11{%k1}{z}
	vpshufb	%ymm16,%ymm11,%ymm11
	vpxorq	%zmm2,%zmm11,%zmm11
	vmovdqu64	224(%r13),%ymm15
.byte	98,211,37,40,68,255,1
.byte	98,83,37,40,68,199,16
.byte	98,211,37,40,68,207,17
.byte	98,211,37,40,68,247,0

	vpxorq	%zmm8,%zmm7,%zmm7
	vpsrldq	$8,%zmm7,%zmm12
	vpslldq	$8,%zmm7,%zmm13
	vpxorq	%zmm12,%zmm1,%zmm1
	vpxorq	%zmm13,%zmm6,%zmm6
	vextracti64x4	$1,%zmm1,%ymm12
	vpxorq	%ymm12,%ymm1,%ymm1
	vextracti32x4	$1,%ymm1,%xmm12
	vpxorq	%xmm12,%xmm1,%xmm1
	vextracti64x4	$1,%zmm6,%ymm13
	vpxorq	%ymm13,%ymm6,%ymm6
	vextracti32x4	$1,%ymm6,%xmm13
	vpxorq	%xmm13,%xmm6,%xmm6
	vmovdqa64	POLY2(%rip),%xmm15


.byte	98,243,5,8,68,254,1
	vpslldq	$8,%xmm7,%xmm7
	vpxorq	%xmm7,%xmm6,%xmm7


.byte	98,115,5,8,68,199,0
	vpsrldq	$4,%xmm8,%xmm8
.byte	98,243,5,8,68,215,16
	vpslldq	$4,%xmm2,%xmm2
	vpternlogq	$0x96,%xmm1,%xmm8,%xmm2

	jmp	.L_CALC_AAD_done_bnzFsuvmDknpsbp
.L_AAD_blocks_1_bnzFsuvmDknpsbp:
	kmovq	(%r12),%k1
	vmovdqu8	0(%r10),%xmm11{%k1}{z}
	vpshufb	%xmm16,%xmm11,%xmm11
	vpxorq	%zmm2,%zmm11,%zmm11
	vmovdqu64	240(%r13),%xmm15
.byte	98,211,37,8,68,255,1
.byte	98,83,37,8,68,199,16
.byte	98,211,37,8,68,207,17
.byte	98,211,37,8,68,247,0

	vpxorq	%zmm8,%zmm7,%zmm7
	vpsrldq	$8,%zmm7,%zmm12
	vpslldq	$8,%zmm7,%zmm13
	vpxorq	%zmm12,%zmm1,%zmm1
	vpxorq	%zmm13,%zmm6,%zmm6
	vextracti64x4	$1,%zmm1,%ymm12
	vpxorq	%ymm12,%ymm1,%ymm1
	vextracti32x4	$1,%ymm1,%xmm12
	vpxorq	%xmm12,%xmm1,%xmm1
	vextracti64x4	$1,%zmm6,%ymm13
	vpxorq	%ymm13,%ymm6,%ymm6
	vextracti32x4	$1,%ymm6,%xmm13
	vpxorq	%xmm13,%xmm6,%xmm6
	vmovdqa64	POLY2(%rip),%xmm15


.byte	98,243,5,8,68,254,1
	vpslldq	$8,%xmm7,%xmm7
	vpxorq	%xmm7,%xmm6,%xmm7


.byte	98,115,5,8,68,199,0
	vpsrldq	$4,%xmm8,%xmm8
.byte	98,243,5,8,68,215,16
	vpslldq	$4,%xmm2,%xmm2
	vpternlogq	$0x96,%xmm1,%xmm8,%xmm2

.L_CALC_AAD_done_bnzFsuvmDknpsbp:
	movq	%rcx,%r10
	shlq	$3,%r10
	vmovq	%r10,%xmm3


	vpxorq	%xmm2,%xmm3,%xmm2

	vmovdqu64	240(%r13),%xmm1

.byte	98,115,109,8,68,217,17
.byte	98,243,109,8,68,217,0
.byte	98,243,109,8,68,225,1
.byte	98,243,109,8,68,209,16
	vpxorq	%xmm4,%xmm2,%xmm2

	vpsrldq	$8,%xmm2,%xmm4
	vpslldq	$8,%xmm2,%xmm2
	vpxorq	%xmm4,%xmm11,%xmm11
	vpxorq	%xmm3,%xmm2,%xmm2



	vmovdqu64	POLY2(%rip),%xmm4

.byte	98,243,93,8,68,218,1
	vpslldq	$8,%xmm3,%xmm3
	vpxorq	%xmm3,%xmm2,%xmm2



.byte	98,243,93,8,68,218,0
	vpsrldq	$4,%xmm3,%xmm3
.byte	98,243,93,8,68,210,16
	vpslldq	$4,%xmm2,%xmm2

	vpternlogq	$0x96,%xmm3,%xmm11,%xmm2

	vpshufb	SHUF_MASK(%rip),%xmm2,%xmm2
	jmp	skip_iv_len_12_init_IV
iv_len_12_init_IV:

	vmovdqu8	ONEf(%rip),%xmm2
	movq	%rdx,%r11
	movl	$0x0000000000000fff,%r10d
	kmovq	%r10,%k1
	vmovdqu8	(%r11),%xmm2{%k1}
skip_iv_len_12_init_IV:
	vmovdqu	%xmm2,%xmm1


	movl	240(%rdi),%r10d
	cmpl	$9,%r10d
	je	.Laes_128_otBvnbdyuroewzD
	cmpl	$11,%r10d
	je	.Laes_192_otBvnbdyuroewzD
	cmpl	$13,%r10d
	je	.Laes_256_otBvnbdyuroewzD
	jmp	.Lexit_aes_otBvnbdyuroewzD
.align	32
.Laes_128_otBvnbdyuroewzD:
	vpxorq	0(%rdi),%xmm1,%xmm1

.byte	98,242,117,8,220,79,1

.byte	98,242,117,8,220,79,2

.byte	98,242,117,8,220,79,3

.byte	98,242,117,8,220,79,4

.byte	98,242,117,8,220,79,5

.byte	98,242,117,8,220,79,6

.byte	98,242,117,8,220,79,7

.byte	98,242,117,8,220,79,8

.byte	98,242,117,8,220,79,9

.byte	98,242,117,8,221,79,10
	jmp	.Lexit_aes_otBvnbdyuroewzD
.align	32
.Laes_192_otBvnbdyuroewzD:
	vpxorq	0(%rdi),%xmm1,%xmm1

.byte	98,242,117,8,220,79,1

.byte	98,242,117,8,220,79,2

.byte	98,242,117,8,220,79,3

.byte	98,242,117,8,220,79,4

.byte	98,242,117,8,220,79,5

.byte	98,242,117,8,220,79,6

.byte	98,242,117,8,220,79,7

.byte	98,242,117,8,220,79,8

.byte	98,242,117,8,220,79,9

.byte	98,242,117,8,220,79,10

.byte	98,242,117,8,220,79,11

.byte	98,242,117,8,221,79,12
	jmp	.Lexit_aes_otBvnbdyuroewzD
.align	32
.Laes_256_otBvnbdyuroewzD:
	vpxorq	0(%rdi),%xmm1,%xmm1

.byte	98,242,117,8,220,79,1

.byte	98,242,117,8,220,79,2

.byte	98,242,117,8,220,79,3

.byte	98,242,117,8,220,79,4

.byte	98,242,117,8,220,79,5

.byte	98,242,117,8,220,79,6

.byte	98,242,117,8,220,79,7

.byte	98,242,117,8,220,79,8

.byte	98,242,117,8,220,79,9

.byte	98,242,117,8,220,79,10

.byte	98,242,117,8,220,79,11

.byte	98,242,117,8,220,79,12

.byte	98,242,117,8,220,79,13

.byte	98,242,117,8,221,79,14
	jmp	.Lexit_aes_otBvnbdyuroewzD
.Lexit_aes_otBvnbdyuroewzD:

	vmovdqu	%xmm1,32(%rsi)


	vpshufb	SHUF_MASK(%rip),%xmm2,%xmm2
	vmovdqu	%xmm2,0(%rsi)
.Lexit_setiv:
	cmpq	$256,%rcx
	jbe	.Lskip_hkeys_cleanup_lDGzdqCkvgheosr
	vpxor	%xmm0,%xmm0,%xmm0
	vmovdqa64	%zmm0,0(%rsp)
	vmovdqa64	%zmm0,64(%rsp)
	vmovdqa64	%zmm0,128(%rsp)
	vmovdqa64	%zmm0,192(%rsp)
	vmovdqa64	%zmm0,256(%rsp)
	vmovdqa64	%zmm0,320(%rsp)
	vmovdqa64	%zmm0,384(%rsp)
	vmovdqa64	%zmm0,448(%rsp)
	vmovdqa64	%zmm0,512(%rsp)
	vmovdqa64	%zmm0,576(%rsp)
	vmovdqa64	%zmm0,640(%rsp)
	vmovdqa64	%zmm0,704(%rsp)
.Lskip_hkeys_cleanup_lDGzdqCkvgheosr:
	vzeroupper
	leaq	(%rbp),%rsp
.cfi_def_cfa_register	%rsp
	popq	%r15
.cfi_adjust_cfa_offset	-8
.cfi_restore	%r15
	popq	%r14
.cfi_adjust_cfa_offset	-8
.cfi_restore	%r14
	popq	%r13
.cfi_adjust_cfa_offset	-8
.cfi_restore	%r13
	popq	%r12
.cfi_adjust_cfa_offset	-8
.cfi_restore	%r12
	popq	%rbp
.cfi_adjust_cfa_offset	-8
.cfi_restore	%rbp
	popq	%rbx
.cfi_adjust_cfa_offset	-8
.cfi_restore	%rbx
	.byte	0xf3,0xc3
.Lsetiv_seh_end:
.cfi_endproc	
.size	gcm_setiv_avx512, .-gcm_setiv_avx512
.globl	aes_gcm_encrypt_avx512
.hidden aes_gcm_encrypt_avx512
.hidden	aes_gcm_encrypt_avx512
.type	aes_gcm_encrypt_avx512,@function
.align	32
aes_gcm_encrypt_avx512:
.cfi_startproc	
.Lencrypt_seh_begin:
#ifdef BORINGSSL_DISPATCH_TEST
.extern	BORINGSSL_function_hit
.hidden BORINGSSL_function_hit
	movb	$1,BORINGSSL_function_hit+7(%rip)
#endif
.byte	243,15,30,250
	pushq	%rbx
.cfi_adjust_cfa_offset	8
.cfi_offset	%rbx,-16
.Lencrypt_seh_push_rbx:
	pushq	%rbp
.cfi_adjust_cfa_offset	8
.cfi_offset	%rbp,-24
.Lencrypt_seh_push_rbp:
	pushq	%r12
.cfi_adjust_cfa_offset	8
.cfi_offset	%r12,-32
.Lencrypt_seh_push_r12:
	pushq	%r13
.cfi_adjust_cfa_offset	8
.cfi_offset	%r13,-40
.Lencrypt_seh_push_r13:
	pushq	%r14
.cfi_adjust_cfa_offset	8
.cfi_offset	%r14,-48
.Lencrypt_seh_push_r14:
	pushq	%r15
.cfi_adjust_cfa_offset	8
.cfi_offset	%r15,-56
.Lencrypt_seh_push_r15:










	leaq	0(%rsp),%rbp
.cfi_def_cfa_register	%rbp
.Lencrypt_seh_setfp:

.Lencrypt_seh_prolog_end:
	subq	$1588,%rsp
	andq	$(-64),%rsp


	movl	240(%rdi),%eax
	cmpl	$9,%eax
	je	.Laes_gcm_encrypt_128_avx512
	cmpl	$11,%eax
	je	.Laes_gcm_encrypt_192_avx512
	cmpl	$13,%eax
	je	.Laes_gcm_encrypt_256_avx512
	xorl	%eax,%eax
	jmp	.Lexit_gcm_encrypt
.align	32
.Laes_gcm_encrypt_128_avx512:
	orq	%r8,%r8
	je	.L_enc_dec_abort_pzwgkGgbplFqzaB
	xorq	%r14,%r14
	vmovdqu64	64(%rsi),%xmm14
	vpshufb	SHUF_MASK(%rip),%xmm14,%xmm14

	movl	(%rdx),%eax
	orq	%rax,%rax
	je	.L_partial_block_done_FkezCgctzlCoEyh
	movl	$16,%r10d
	leaq	byte_len_to_mask_table(%rip),%r12
	cmpq	%r10,%r8
	cmovcq	%r8,%r10
	kmovw	(%r12,%r10,2),%k1
	vmovdqu8	(%rcx),%xmm0{%k1}{z}

	vmovdqu64	16(%rsi),%xmm3

	leaq	80(%rsi),%r10
	vmovdqu64	240(%r10),%xmm4



	leaq	SHIFT_MASK(%rip),%r12
	addq	%rax,%r12
	vmovdqu64	(%r12),%xmm5
	vpshufb	%xmm5,%xmm3,%xmm3
	vpxorq	%xmm0,%xmm3,%xmm3


	leaq	(%r8,%rax,1),%r13
	subq	$16,%r13
	jge	.L_no_extra_mask_FkezCgctzlCoEyh
	subq	%r13,%r12
.L_no_extra_mask_FkezCgctzlCoEyh:



	vmovdqu64	16(%r12),%xmm0
	vpand	%xmm0,%xmm3,%xmm3
	vpshufb	SHUF_MASK(%rip),%xmm3,%xmm3
	vpshufb	%xmm5,%xmm3,%xmm3
	vpxorq	%xmm3,%xmm14,%xmm14
	cmpq	$0,%r13
	jl	.L_partial_incomplete_FkezCgctzlCoEyh

.byte	98,243,13,8,68,252,17
.byte	98,115,13,8,68,212,0
.byte	98,115,13,8,68,220,1
.byte	98,115,13,8,68,244,16
	vpxorq	%xmm11,%xmm14,%xmm14

	vpsrldq	$8,%xmm14,%xmm11
	vpslldq	$8,%xmm14,%xmm14
	vpxorq	%xmm11,%xmm7,%xmm7
	vpxorq	%xmm10,%xmm14,%xmm14



	vmovdqu64	POLY2(%rip),%xmm11

.byte	98,83,37,8,68,214,1
	vpslldq	$8,%xmm10,%xmm10
	vpxorq	%xmm10,%xmm14,%xmm14



.byte	98,83,37,8,68,214,0
	vpsrldq	$4,%xmm10,%xmm10
.byte	98,83,37,8,68,246,16
	vpslldq	$4,%xmm14,%xmm14

	vpternlogq	$0x96,%xmm10,%xmm7,%xmm14

	movl	$0,(%rdx)

	movq	%rax,%r12
	movq	$16,%rax
	subq	%r12,%rax
	jmp	.L_enc_dec_done_FkezCgctzlCoEyh

.L_partial_incomplete_FkezCgctzlCoEyh:
	addl	%r8d,(%rdx)
	movq	%r8,%rax

.L_enc_dec_done_FkezCgctzlCoEyh:


	leaq	byte_len_to_mask_table(%rip),%r12
	kmovw	(%r12,%rax,2),%k1

	vpshufb	SHUF_MASK(%rip),%xmm3,%xmm3
	vpshufb	%xmm5,%xmm3,%xmm3
	movq	%r9,%r12
	vmovdqu8	%xmm3,(%r12){%k1}
.L_partial_block_done_FkezCgctzlCoEyh:
	vmovdqu64	0(%rsi),%xmm2
	subq	%rax,%r8
	je	.L_enc_dec_done_pzwgkGgbplFqzaB
	cmpq	$256,%r8
	jbe	.L_message_below_equal_16_blocks_pzwgkGgbplFqzaB

	vmovdqa64	SHUF_MASK(%rip),%zmm29
	vmovdqa64	ddq_addbe_4444(%rip),%zmm27
	vmovdqa64	ddq_addbe_1234(%rip),%zmm28






	vmovd	%xmm2,%r15d
	andl	$255,%r15d

	vshufi64x2	$0,%zmm2,%zmm2,%zmm2
	vpshufb	%zmm29,%zmm2,%zmm2



	cmpb	$240,%r15b
	jae	.L_next_16_overflow_yByFrylbFDFnFCp
	vpaddd	%zmm28,%zmm2,%zmm7
	vpaddd	%zmm27,%zmm7,%zmm10
	vpaddd	%zmm27,%zmm10,%zmm11
	vpaddd	%zmm27,%zmm11,%zmm12
	jmp	.L_next_16_ok_yByFrylbFDFnFCp
.L_next_16_overflow_yByFrylbFDFnFCp:
	vpshufb	%zmm29,%zmm2,%zmm2
	vmovdqa64	ddq_add_4444(%rip),%zmm12
	vpaddd	ddq_add_1234(%rip),%zmm2,%zmm7
	vpaddd	%zmm12,%zmm7,%zmm10
	vpaddd	%zmm12,%zmm10,%zmm11
	vpaddd	%zmm12,%zmm11,%zmm12
	vpshufb	%zmm29,%zmm7,%zmm7
	vpshufb	%zmm29,%zmm10,%zmm10
	vpshufb	%zmm29,%zmm11,%zmm11
	vpshufb	%zmm29,%zmm12,%zmm12
.L_next_16_ok_yByFrylbFDFnFCp:
	vshufi64x2	$255,%zmm12,%zmm12,%zmm2
	addb	$16,%r15b

	vmovdqu8	0(%rcx,%rax,1),%zmm0
	vmovdqu8	64(%rcx,%rax,1),%zmm3
	vmovdqu8	128(%rcx,%rax,1),%zmm4
	vmovdqu8	192(%rcx,%rax,1),%zmm5


	vbroadcastf64x2	0(%rdi),%zmm6
	vpxorq	%zmm6,%zmm7,%zmm7
	vpxorq	%zmm6,%zmm10,%zmm10
	vpxorq	%zmm6,%zmm11,%zmm11
	vpxorq	%zmm6,%zmm12,%zmm12
	vbroadcastf64x2	16(%rdi),%zmm6
.byte	98,242,69,72,220,254
.byte	98,114,45,72,220,214
.byte	98,114,37,72,220,222
.byte	98,114,29,72,220,230
	vbroadcastf64x2	32(%rdi),%zmm6
.byte	98,242,69,72,220,254
.byte	98,114,45,72,220,214
.byte	98,114,37,72,220,222
.byte	98,114,29,72,220,230
	vbroadcastf64x2	48(%rdi),%zmm6
.byte	98,242,69,72,220,254
.byte	98,114,45,72,220,214
.byte	98,114,37,72,220,222
.byte	98,114,29,72,220,230
	vbroadcastf64x2	64(%rdi),%zmm6
.byte	98,242,69,72,220,254
.byte	98,114,45,72,220,214
.byte	98,114,37,72,220,222
.byte	98,114,29,72,220,230
	vbroadcastf64x2	80(%rdi),%zmm6
.byte	98,242,69,72,220,254
.byte	98,114,45,72,220,214
.byte	98,114,37,72,220,222
.byte	98,114,29,72,220,230
	vbroadcastf64x2	96(%rdi),%zmm6
.byte	98,242,69,72,220,254
.byte	98,114,45,72,220,214
.byte	98,114,37,72,220,222
.byte	98,114,29,72,220,230
	vbroadcastf64x2	112(%rdi),%zmm6
.byte	98,242,69,72,220,254
.byte	98,114,45,72,220,214
.byte	98,114,37,72,220,222
.byte	98,114,29,72,220,230
	vbroadcastf64x2	128(%rdi),%zmm6
.byte	98,242,69,72,220,254
.byte	98,114,45,72,220,214
.byte	98,114,37,72,220,222
.byte	98,114,29,72,220,230
	vbroadcastf64x2	144(%rdi),%zmm6
.byte	98,242,69,72,220,254
.byte	98,114,45,72,220,214
.byte	98,114,37,72,220,222
.byte	98,114,29,72,220,230
	vbroadcastf64x2	160(%rdi),%zmm6
.byte	98,242,69,72,221,254
.byte	98,114,45,72,221,214
.byte	98,114,37,72,221,222
.byte	98,114,29,72,221,230


	vpxorq	%zmm0,%zmm7,%zmm7
	vpxorq	%zmm3,%zmm10,%zmm10
	vpxorq	%zmm4,%zmm11,%zmm11
	vpxorq	%zmm5,%zmm12,%zmm12


	movq	%r9,%r10
	vmovdqu8	%zmm7,0(%r10,%rax,1)
	vmovdqu8	%zmm10,64(%r10,%rax,1)
	vmovdqu8	%zmm11,128(%r10,%rax,1)
	vmovdqu8	%zmm12,192(%r10,%rax,1)

	vpshufb	%zmm29,%zmm7,%zmm7
	vpshufb	%zmm29,%zmm10,%zmm10
	vpshufb	%zmm29,%zmm11,%zmm11
	vpshufb	%zmm29,%zmm12,%zmm12
	vmovdqa64	%zmm7,768(%rsp)
	vmovdqa64	%zmm10,832(%rsp)
	vmovdqa64	%zmm11,896(%rsp)
	vmovdqa64	%zmm12,960(%rsp)
	leaq	80(%rsi),%r12
	testq	%r14,%r14
	jnz	.L_skip_hkeys_precomputation_achfkmnqFwjgbDD

	vmovdqu64	192(%r12),%zmm0
	vmovdqu64	%zmm0,704(%rsp)

	vmovdqu64	128(%r12),%zmm3
	vmovdqu64	%zmm3,640(%rsp)


	vshufi64x2	$0x00,%zmm3,%zmm3,%zmm3

	vmovdqu64	64(%r12),%zmm4
	vmovdqu64	%zmm4,576(%rsp)

	vmovdqu64	0(%r12),%zmm5
	vmovdqu64	%zmm5,512(%rsp)
.L_skip_hkeys_precomputation_achfkmnqFwjgbDD:
	cmpq	$512,%r8
	jb	.L_message_below_32_blocks_pzwgkGgbplFqzaB



	cmpb	$240,%r15b
	jae	.L_next_16_overflow_xvcFynjeulFjDdF
	vpaddd	%zmm28,%zmm2,%zmm7
	vpaddd	%zmm27,%zmm7,%zmm10
	vpaddd	%zmm27,%zmm10,%zmm11
	vpaddd	%zmm27,%zmm11,%zmm12
	jmp	.L_next_16_ok_xvcFynjeulFjDdF
.L_next_16_overflow_xvcFynjeulFjDdF:
	vpshufb	%zmm29,%zmm2,%zmm2
	vmovdqa64	ddq_add_4444(%rip),%zmm12
	vpaddd	ddq_add_1234(%rip),%zmm2,%zmm7
	vpaddd	%zmm12,%zmm7,%zmm10
	vpaddd	%zmm12,%zmm10,%zmm11
	vpaddd	%zmm12,%zmm11,%zmm12
	vpshufb	%zmm29,%zmm7,%zmm7
	vpshufb	%zmm29,%zmm10,%zmm10
	vpshufb	%zmm29,%zmm11,%zmm11
	vpshufb	%zmm29,%zmm12,%zmm12
.L_next_16_ok_xvcFynjeulFjDdF:
	vshufi64x2	$255,%zmm12,%zmm12,%zmm2
	addb	$16,%r15b

	vmovdqu8	256(%rcx,%rax,1),%zmm0
	vmovdqu8	320(%rcx,%rax,1),%zmm3
	vmovdqu8	384(%rcx,%rax,1),%zmm4
	vmovdqu8	448(%rcx,%rax,1),%zmm5


	vbroadcastf64x2	0(%rdi),%zmm6
	vpxorq	%zmm6,%zmm7,%zmm7
	vpxorq	%zmm6,%zmm10,%zmm10
	vpxorq	%zmm6,%zmm11,%zmm11
	vpxorq	%zmm6,%zmm12,%zmm12
	vbroadcastf64x2	16(%rdi),%zmm6
.byte	98,242,69,72,220,254
.byte	98,114,45,72,220,214
.byte	98,114,37,72,220,222
.byte	98,114,29,72,220,230
	vbroadcastf64x2	32(%rdi),%zmm6
.byte	98,242,69,72,220,254
.byte	98,114,45,72,220,214
.byte	98,114,37,72,220,222
.byte	98,114,29,72,220,230
	vbroadcastf64x2	48(%rdi),%zmm6
.byte	98,242,69,72,220,254
.byte	98,114,45,72,220,214
.byte	98,114,37,72,220,222
.byte	98,114,29,72,220,230
	vbroadcastf64x2	64(%rdi),%zmm6
.byte	98,242,69,72,220,254
.byte	98,114,45,72,220,214
.byte	98,114,37,72,220,222
.byte	98,114,29,72,220,230
	vbroadcastf64x2	80(%rdi),%zmm6
.byte	98,242,69,72,220,254
.byte	98,114,45,72,220,214
.byte	98,114,37,72,220,222
.byte	98,114,29,72,220,230
	vbroadcastf64x2	96(%rdi),%zmm6
.byte	98,242,69,72,220,254
.byte	98,114,45,72,220,214
.byte	98,114,37,72,220,222
.byte	98,114,29,72,220,230
	vbroadcastf64x2	112(%rdi),%zmm6
.byte	98,242,69,72,220,254
.byte	98,114,45,72,220,214
.byte	98,114,37,72,220,222
.byte	98,114,29,72,220,230
	vbroadcastf64x2	128(%rdi),%zmm6
.byte	98,242,69,72,220,254
.byte	98,114,45,72,220,214
.byte	98,114,37,72,220,222
.byte	98,114,29,72,220,230
	vbroadcastf64x2	144(%rdi),%zmm6
.byte	98,242,69,72,220,254
.byte	98,114,45,72,220,214
.byte	98,114,37,72,220,222
.byte	98,114,29,72,220,230
	vbroadcastf64x2	160(%rdi),%zmm6
.byte	98,242,69,72,221,254
.byte	98,114,45,72,221,214
.byte	98,114,37,72,221,222
.byte	98,114,29,72,221,230


	vpxorq	%zmm0,%zmm7,%zmm7
	vpxorq	%zmm3,%zmm10,%zmm10
	vpxorq	%zmm4,%zmm11,%zmm11
	vpxorq	%zmm5,%zmm12,%zmm12


	movq	%r9,%r10
	vmovdqu8	%zmm7,256(%r10,%rax,1)
	vmovdqu8	%zmm10,320(%r10,%rax,1)
	vmovdqu8	%zmm11,384(%r10,%rax,1)
	vmovdqu8	%zmm12,448(%r10,%rax,1)

	vpshufb	%zmm29,%zmm7,%zmm7
	vpshufb	%zmm29,%zmm10,%zmm10
	vpshufb	%zmm29,%zmm11,%zmm11
	vpshufb	%zmm29,%zmm12,%zmm12
	vmovdqa64	%zmm7,1024(%rsp)
	vmovdqa64	%zmm10,1088(%rsp)
	vmovdqa64	%zmm11,1152(%rsp)
	vmovdqa64	%zmm12,1216(%rsp)
	testq	%r14,%r14
	jnz	.L_skip_hkeys_precomputation_mBcrmCyGfEttetw
	vmovdqu64	640(%rsp),%zmm3


	vshufi64x2	$0x00,%zmm3,%zmm3,%zmm3

	vmovdqu64	576(%rsp),%zmm4
	vmovdqu64	512(%rsp),%zmm5

.byte	98,243,93,72,68,243,17
.byte	98,243,93,72,68,251,0
.byte	98,115,93,72,68,211,1
.byte	98,243,93,72,68,227,16
	vpxorq	%zmm10,%zmm4,%zmm4

	vpsrldq	$8,%zmm4,%zmm10
	vpslldq	$8,%zmm4,%zmm4
	vpxorq	%zmm10,%zmm6,%zmm6
	vpxorq	%zmm7,%zmm4,%zmm4



	vmovdqu64	POLY2(%rip),%zmm10

.byte	98,243,45,72,68,252,1
	vpslldq	$8,%zmm7,%zmm7
	vpxorq	%zmm7,%zmm4,%zmm4



.byte	98,243,45,72,68,252,0
	vpsrldq	$4,%zmm7,%zmm7
.byte	98,243,45,72,68,228,16
	vpslldq	$4,%zmm4,%zmm4

	vpternlogq	$0x96,%zmm7,%zmm6,%zmm4

	vmovdqu64	%zmm4,448(%rsp)

.byte	98,243,85,72,68,243,17
.byte	98,243,85,72,68,251,0
.byte	98,115,85,72,68,211,1
.byte	98,243,85,72,68,235,16
	vpxorq	%zmm10,%zmm5,%zmm5

	vpsrldq	$8,%zmm5,%zmm10
	vpslldq	$8,%zmm5,%zmm5
	vpxorq	%zmm10,%zmm6,%zmm6
	vpxorq	%zmm7,%zmm5,%zmm5



	vmovdqu64	POLY2(%rip),%zmm10

.byte	98,243,45,72,68,253,1
	vpslldq	$8,%zmm7,%zmm7
	vpxorq	%zmm7,%zmm5,%zmm5



.byte	98,243,45,72,68,253,0
	vpsrldq	$4,%zmm7,%zmm7
.byte	98,243,45,72,68,237,16
	vpslldq	$4,%zmm5,%zmm5

	vpternlogq	$0x96,%zmm7,%zmm6,%zmm5

	vmovdqu64	%zmm5,384(%rsp)

.byte	98,243,93,72,68,243,17
.byte	98,243,93,72,68,251,0
.byte	98,115,93,72,68,211,1
.byte	98,243,93,72,68,227,16
	vpxorq	%zmm10,%zmm4,%zmm4

	vpsrldq	$8,%zmm4,%zmm10
	vpslldq	$8,%zmm4,%zmm4
	vpxorq	%zmm10,%zmm6,%zmm6
	vpxorq	%zmm7,%zmm4,%zmm4



	vmovdqu64	POLY2(%rip),%zmm10

.byte	98,243,45,72,68,252,1
	vpslldq	$8,%zmm7,%zmm7
	vpxorq	%zmm7,%zmm4,%zmm4



.byte	98,243,45,72,68,252,0
	vpsrldq	$4,%zmm7,%zmm7
.byte	98,243,45,72,68,228,16
	vpslldq	$4,%zmm4,%zmm4

	vpternlogq	$0x96,%zmm7,%zmm6,%zmm4

	vmovdqu64	%zmm4,320(%rsp)

.byte	98,243,85,72,68,243,17
.byte	98,243,85,72,68,251,0
.byte	98,115,85,72,68,211,1
.byte	98,243,85,72,68,235,16
	vpxorq	%zmm10,%zmm5,%zmm5

	vpsrldq	$8,%zmm5,%zmm10
	vpslldq	$8,%zmm5,%zmm5
	vpxorq	%zmm10,%zmm6,%zmm6
	vpxorq	%zmm7,%zmm5,%zmm5



	vmovdqu64	POLY2(%rip),%zmm10

.byte	98,243,45,72,68,253,1
	vpslldq	$8,%zmm7,%zmm7
	vpxorq	%zmm7,%zmm5,%zmm5



.byte	98,243,45,72,68,253,0
	vpsrldq	$4,%zmm7,%zmm7
.byte	98,243,45,72,68,237,16
	vpslldq	$4,%zmm5,%zmm5

	vpternlogq	$0x96,%zmm7,%zmm6,%zmm5

	vmovdqu64	%zmm5,256(%rsp)

.byte	98,243,93,72,68,243,17
.byte	98,243,93,72,68,251,0
.byte	98,115,93,72,68,211,1
.byte	98,243,93,72,68,227,16
	vpxorq	%zmm10,%zmm4,%zmm4

	vpsrldq	$8,%zmm4,%zmm10
	vpslldq	$8,%zmm4,%zmm4
	vpxorq	%zmm10,%zmm6,%zmm6
	vpxorq	%zmm7,%zmm4,%zmm4



	vmovdqu64	POLY2(%rip),%zmm10

.byte	98,243,45,72,68,252,1
	vpslldq	$8,%zmm7,%zmm7
	vpxorq	%zmm7,%zmm4,%zmm4



.byte	98,243,45,72,68,252,0
	vpsrldq	$4,%zmm7,%zmm7
.byte	98,243,45,72,68,228,16
	vpslldq	$4,%zmm4,%zmm4

	vpternlogq	$0x96,%zmm7,%zmm6,%zmm4

	vmovdqu64	%zmm4,192(%rsp)

.byte	98,243,85,72,68,243,17
.byte	98,243,85,72,68,251,0
.byte	98,115,85,72,68,211,1
.byte	98,243,85,72,68,235,16
	vpxorq	%zmm10,%zmm5,%zmm5

	vpsrldq	$8,%zmm5,%zmm10
	vpslldq	$8,%zmm5,%zmm5
	vpxorq	%zmm10,%zmm6,%zmm6
	vpxorq	%zmm7,%zmm5,%zmm5



	vmovdqu64	POLY2(%rip),%zmm10

.byte	98,243,45,72,68,253,1
	vpslldq	$8,%zmm7,%zmm7
	vpxorq	%zmm7,%zmm5,%zmm5



.byte	98,243,45,72,68,253,0
	vpsrldq	$4,%zmm7,%zmm7
.byte	98,243,45,72,68,237,16
	vpslldq	$4,%zmm5,%zmm5

	vpternlogq	$0x96,%zmm7,%zmm6,%zmm5

	vmovdqu64	%zmm5,128(%rsp)

.byte	98,243,93,72,68,243,17
.byte	98,243,93,72,68,251,0
.byte	98,115,93,72,68,211,1
.byte	98,243,93,72,68,227,16
	vpxorq	%zmm10,%zmm4,%zmm4

	vpsrldq	$8,%zmm4,%zmm10
	vpslldq	$8,%zmm4,%zmm4
	vpxorq	%zmm10,%zmm6,%zmm6
	vpxorq	%zmm7,%zmm4,%zmm4



	vmovdqu64	POLY2(%rip),%zmm10

.byte	98,243,45,72,68,252,1
	vpslldq	$8,%zmm7,%zmm7
	vpxorq	%zmm7,%zmm4,%zmm4



.byte	98,243,45,72,68,252,0
	vpsrldq	$4,%zmm7,%zmm7
.byte	98,243,45,72,68,228,16
	vpslldq	$4,%zmm4,%zmm4

	vpternlogq	$0x96,%zmm7,%zmm6,%zmm4

	vmovdqu64	%zmm4,64(%rsp)

.byte	98,243,85,72,68,243,17
.byte	98,243,85,72,68,251,0
.byte	98,115,85,72,68,211,1
.byte	98,243,85,72,68,235,16
	vpxorq	%zmm10,%zmm5,%zmm5

	vpsrldq	$8,%zmm5,%zmm10
	vpslldq	$8,%zmm5,%zmm5
	vpxorq	%zmm10,%zmm6,%zmm6
	vpxorq	%zmm7,%zmm5,%zmm5



	vmovdqu64	POLY2(%rip),%zmm10

.byte	98,243,45,72,68,253,1
	vpslldq	$8,%zmm7,%zmm7
	vpxorq	%zmm7,%zmm5,%zmm5



.byte	98,243,45,72,68,253,0
	vpsrldq	$4,%zmm7,%zmm7
.byte	98,243,45,72,68,237,16
	vpslldq	$4,%zmm5,%zmm5

	vpternlogq	$0x96,%zmm7,%zmm6,%zmm5

	vmovdqu64	%zmm5,0(%rsp)
.L_skip_hkeys_precomputation_mBcrmCyGfEttetw:
	movq	$1,%r14
	addq	$512,%rax
	subq	$512,%r8

	cmpq	$768,%r8
	jb	.L_no_more_big_nblocks_pzwgkGgbplFqzaB
.L_encrypt_big_nblocks_pzwgkGgbplFqzaB:
	cmpb	$240,%r15b
	jae	.L_16_blocks_overflow_avoAfAGuxmumDjA
	vpaddd	%zmm28,%zmm2,%zmm0
	vpaddd	%zmm27,%zmm0,%zmm3
	vpaddd	%zmm27,%zmm3,%zmm4
	vpaddd	%zmm27,%zmm4,%zmm5
	jmp	.L_16_blocks_ok_avoAfAGuxmumDjA
.L_16_blocks_overflow_avoAfAGuxmumDjA:
	vpshufb	%zmm29,%zmm2,%zmm2
	vmovdqa64	ddq_add_4444(%rip),%zmm5
	vpaddd	ddq_add_1234(%rip),%zmm2,%zmm0
	vpaddd	%zmm5,%zmm0,%zmm3
	vpaddd	%zmm5,%zmm3,%zmm4
	vpaddd	%zmm5,%zmm4,%zmm5
	vpshufb	%zmm29,%zmm0,%zmm0
	vpshufb	%zmm29,%zmm3,%zmm3
	vpshufb	%zmm29,%zmm4,%zmm4
	vpshufb	%zmm29,%zmm5,%zmm5
.L_16_blocks_ok_avoAfAGuxmumDjA:
	vbroadcastf64x2	0(%rdi),%zmm30
	vpxorq	768(%rsp),%zmm14,%zmm8
	vmovdqu64	0(%rsp),%zmm1




	vshufi64x2	$255,%zmm5,%zmm5,%zmm2
	addb	$16,%r15b


	vbroadcastf64x2	16(%rdi),%zmm31
	vmovdqu64	64(%rsp),%zmm18
	vmovdqa64	832(%rsp),%zmm22







	vpxorq	%zmm30,%zmm0,%zmm0
	vpxorq	%zmm30,%zmm3,%zmm3
	vpxorq	%zmm30,%zmm4,%zmm4
	vpxorq	%zmm30,%zmm5,%zmm5
	vbroadcastf64x2	32(%rdi),%zmm30



.byte	98,243,61,72,68,241,17
.byte	98,243,61,72,68,249,0
.byte	98,115,61,72,68,209,1
.byte	98,115,61,72,68,217,16
	vmovdqu64	128(%rsp),%zmm1
	vmovdqa64	896(%rsp),%zmm8



.byte	98,146,125,72,220,199
.byte	98,146,101,72,220,223
.byte	98,146,93,72,220,231
.byte	98,146,85,72,220,239
	vbroadcastf64x2	48(%rdi),%zmm31



.byte	98,51,77,64,68,250,16
.byte	98,163,77,64,68,194,1
.byte	98,51,77,64,68,226,17
.byte	98,51,77,64,68,234,0
	vmovdqu64	192(%rsp),%zmm18
	vmovdqa64	960(%rsp),%zmm22



.byte	98,146,125,72,220,198
.byte	98,146,101,72,220,222
.byte	98,146,93,72,220,230
.byte	98,146,85,72,220,238
	vbroadcastf64x2	64(%rdi),%zmm30



.byte	98,227,61,72,68,225,16
.byte	98,227,61,72,68,233,1
.byte	98,227,61,72,68,201,17
.byte	98,227,61,72,68,217,0


.byte	98,146,125,72,220,199
.byte	98,146,101,72,220,223
.byte	98,146,93,72,220,231
.byte	98,146,85,72,220,239
	vbroadcastf64x2	80(%rdi),%zmm31



	vpternlogq	$0x96,%zmm17,%zmm12,%zmm6
	vpternlogq	$0x96,%zmm19,%zmm13,%zmm7
	vpternlogq	$0x96,%zmm21,%zmm16,%zmm11
	vpternlogq	$0x96,%zmm20,%zmm15,%zmm10



.byte	98,146,125,72,220,198
.byte	98,146,101,72,220,222
.byte	98,146,93,72,220,230
.byte	98,146,85,72,220,238
	vbroadcastf64x2	96(%rdi),%zmm30



	vmovdqu8	0(%rcx,%rax,1),%zmm17
	vmovdqu8	64(%rcx,%rax,1),%zmm19
	vmovdqu8	128(%rcx,%rax,1),%zmm20
	vmovdqu8	192(%rcx,%rax,1),%zmm21



.byte	98,146,125,72,220,199
.byte	98,146,101,72,220,223
.byte	98,146,93,72,220,231
.byte	98,146,85,72,220,239
	vbroadcastf64x2	112(%rdi),%zmm31



.byte	98,51,77,64,68,250,16
.byte	98,163,77,64,68,194,1
.byte	98,51,77,64,68,226,17
.byte	98,51,77,64,68,234,0


.byte	98,146,125,72,220,198
.byte	98,146,101,72,220,222
.byte	98,146,93,72,220,230
.byte	98,146,85,72,220,238
	vbroadcastf64x2	128(%rdi),%zmm30
	vpternlogq	$0x96,%zmm16,%zmm11,%zmm10
	vpxorq	%zmm15,%zmm10,%zmm26
	vpxorq	%zmm12,%zmm6,%zmm24
	vpxorq	%zmm13,%zmm7,%zmm25
.byte	98,146,125,72,220,199
.byte	98,146,101,72,220,223
.byte	98,146,93,72,220,231
.byte	98,146,85,72,220,239
	vbroadcastf64x2	144(%rdi),%zmm31
.byte	98,146,125,72,220,198
.byte	98,146,101,72,220,222
.byte	98,146,93,72,220,230
.byte	98,146,85,72,220,238
	vbroadcastf64x2	160(%rdi),%zmm30
.byte	98,146,125,72,220,199
.byte	98,146,101,72,220,223
.byte	98,146,93,72,220,231
.byte	98,146,85,72,220,239
.byte	98,146,125,72,221,198
.byte	98,146,101,72,221,222
.byte	98,146,93,72,221,230
.byte	98,146,85,72,221,238



	vpxorq	%zmm17,%zmm0,%zmm0
	vpxorq	%zmm19,%zmm3,%zmm3
	vpxorq	%zmm20,%zmm4,%zmm4
	vpxorq	%zmm21,%zmm5,%zmm5



	movq	%r9,%r10
	vmovdqu8	%zmm0,0(%r10,%rax,1)
	vmovdqu8	%zmm3,64(%r10,%rax,1)
	vmovdqu8	%zmm4,128(%r10,%rax,1)
	vmovdqu8	%zmm5,192(%r10,%rax,1)
	vpshufb	%zmm29,%zmm0,%zmm0
	vpshufb	%zmm29,%zmm3,%zmm3
	vpshufb	%zmm29,%zmm4,%zmm4
	vpshufb	%zmm29,%zmm5,%zmm5
	vmovdqa64	%zmm0,1280(%rsp)
	vmovdqa64	%zmm3,1344(%rsp)
	vmovdqa64	%zmm4,1408(%rsp)
	vmovdqa64	%zmm5,1472(%rsp)
	cmpb	$240,%r15b
	jae	.L_16_blocks_overflow_AGgjmjawDklDqyq
	vpaddd	%zmm28,%zmm2,%zmm0
	vpaddd	%zmm27,%zmm0,%zmm3
	vpaddd	%zmm27,%zmm3,%zmm4
	vpaddd	%zmm27,%zmm4,%zmm5
	jmp	.L_16_blocks_ok_AGgjmjawDklDqyq
.L_16_blocks_overflow_AGgjmjawDklDqyq:
	vpshufb	%zmm29,%zmm2,%zmm2
	vmovdqa64	ddq_add_4444(%rip),%zmm5
	vpaddd	ddq_add_1234(%rip),%zmm2,%zmm0
	vpaddd	%zmm5,%zmm0,%zmm3
	vpaddd	%zmm5,%zmm3,%zmm4
	vpaddd	%zmm5,%zmm4,%zmm5
	vpshufb	%zmm29,%zmm0,%zmm0
	vpshufb	%zmm29,%zmm3,%zmm3
	vpshufb	%zmm29,%zmm4,%zmm4
	vpshufb	%zmm29,%zmm5,%zmm5
.L_16_blocks_ok_AGgjmjawDklDqyq:
	vbroadcastf64x2	0(%rdi),%zmm30
	vmovdqa64	1024(%rsp),%zmm8
	vmovdqu64	256(%rsp),%zmm1




	vshufi64x2	$255,%zmm5,%zmm5,%zmm2
	addb	$16,%r15b


	vbroadcastf64x2	16(%rdi),%zmm31
	vmovdqu64	320(%rsp),%zmm18
	vmovdqa64	1088(%rsp),%zmm22







	vpxorq	%zmm30,%zmm0,%zmm0
	vpxorq	%zmm30,%zmm3,%zmm3
	vpxorq	%zmm30,%zmm4,%zmm4
	vpxorq	%zmm30,%zmm5,%zmm5
	vbroadcastf64x2	32(%rdi),%zmm30



.byte	98,243,61,72,68,241,17
.byte	98,243,61,72,68,249,0
.byte	98,115,61,72,68,209,1
.byte	98,115,61,72,68,217,16
	vmovdqu64	384(%rsp),%zmm1
	vmovdqa64	1152(%rsp),%zmm8



.byte	98,146,125,72,220,199
.byte	98,146,101,72,220,223
.byte	98,146,93,72,220,231
.byte	98,146,85,72,220,239
	vbroadcastf64x2	48(%rdi),%zmm31



.byte	98,51,77,64,68,250,16
.byte	98,163,77,64,68,194,1
.byte	98,51,77,64,68,226,17
.byte	98,51,77,64,68,234,0
	vmovdqu64	448(%rsp),%zmm18
	vmovdqa64	1216(%rsp),%zmm22



.byte	98,146,125,72,220,198
.byte	98,146,101,72,220,222
.byte	98,146,93,72,220,230
.byte	98,146,85,72,220,238
	vbroadcastf64x2	64(%rdi),%zmm30



.byte	98,227,61,72,68,225,16
.byte	98,227,61,72,68,233,1
.byte	98,227,61,72,68,201,17
.byte	98,227,61,72,68,217,0


.byte	98,146,125,72,220,199
.byte	98,146,101,72,220,223
.byte	98,146,93,72,220,231
.byte	98,146,85,72,220,239
	vbroadcastf64x2	80(%rdi),%zmm31



	vpternlogq	$0x96,%zmm17,%zmm12,%zmm6
	vpternlogq	$0x96,%zmm19,%zmm13,%zmm7
	vpternlogq	$0x96,%zmm21,%zmm16,%zmm11
	vpternlogq	$0x96,%zmm20,%zmm15,%zmm10



.byte	98,146,125,72,220,198
.byte	98,146,101,72,220,222
.byte	98,146,93,72,220,230
.byte	98,146,85,72,220,238
	vbroadcastf64x2	96(%rdi),%zmm30



	vmovdqu8	256(%rcx,%rax,1),%zmm17
	vmovdqu8	320(%rcx,%rax,1),%zmm19
	vmovdqu8	384(%rcx,%rax,1),%zmm20
	vmovdqu8	448(%rcx,%rax,1),%zmm21



.byte	98,146,125,72,220,199
.byte	98,146,101,72,220,223
.byte	98,146,93,72,220,231
.byte	98,146,85,72,220,239
	vbroadcastf64x2	112(%rdi),%zmm31



.byte	98,51,77,64,68,250,16
.byte	98,163,77,64,68,194,1
.byte	98,51,77,64,68,226,17
.byte	98,51,77,64,68,234,0


.byte	98,146,125,72,220,198
.byte	98,146,101,72,220,222
.byte	98,146,93,72,220,230
.byte	98,146,85,72,220,238
	vbroadcastf64x2	128(%rdi),%zmm30
	vpternlogq	$0x96,%zmm16,%zmm11,%zmm10
	vpternlogq	$0x96,%zmm15,%zmm10,%zmm26
	vpternlogq	$0x96,%zmm12,%zmm6,%zmm24
	vpternlogq	$0x96,%zmm13,%zmm7,%zmm25
.byte	98,146,125,72,220,199
.byte	98,146,101,72,220,223
.byte	98,146,93,72,220,231
.byte	98,146,85,72,220,239
	vbroadcastf64x2	144(%rdi),%zmm31
.byte	98,146,125,72,220,198
.byte	98,146,101,72,220,222
.byte	98,146,93,72,220,230
.byte	98,146,85,72,220,238
	vbroadcastf64x2	160(%rdi),%zmm30
.byte	98,146,125,72,220,199
.byte	98,146,101,72,220,223
.byte	98,146,93,72,220,231
.byte	98,146,85,72,220,239
.byte	98,146,125,72,221,198
.byte	98,146,101,72,221,222
.byte	98,146,93,72,221,230
.byte	98,146,85,72,221,238



	vpxorq	%zmm17,%zmm0,%zmm0
	vpxorq	%zmm19,%zmm3,%zmm3
	vpxorq	%zmm20,%zmm4,%zmm4
	vpxorq	%zmm21,%zmm5,%zmm5



	movq	%r9,%r10
	vmovdqu8	%zmm0,256(%r10,%rax,1)
	vmovdqu8	%zmm3,320(%r10,%rax,1)
	vmovdqu8	%zmm4,384(%r10,%rax,1)
	vmovdqu8	%zmm5,448(%r10,%rax,1)
	vpshufb	%zmm29,%zmm0,%zmm0
	vpshufb	%zmm29,%zmm3,%zmm3
	vpshufb	%zmm29,%zmm4,%zmm4
	vpshufb	%zmm29,%zmm5,%zmm5
	vmovdqa64	%zmm0,768(%rsp)
	vmovdqa64	%zmm3,832(%rsp)
	vmovdqa64	%zmm4,896(%rsp)
	vmovdqa64	%zmm5,960(%rsp)
	cmpb	$240,%r15b
	jae	.L_16_blocks_overflow_gutvpupplrsoEbw
	vpaddd	%zmm28,%zmm2,%zmm0
	vpaddd	%zmm27,%zmm0,%zmm3
	vpaddd	%zmm27,%zmm3,%zmm4
	vpaddd	%zmm27,%zmm4,%zmm5
	jmp	.L_16_blocks_ok_gutvpupplrsoEbw
.L_16_blocks_overflow_gutvpupplrsoEbw:
	vpshufb	%zmm29,%zmm2,%zmm2
	vmovdqa64	ddq_add_4444(%rip),%zmm5
	vpaddd	ddq_add_1234(%rip),%zmm2,%zmm0
	vpaddd	%zmm5,%zmm0,%zmm3
	vpaddd	%zmm5,%zmm3,%zmm4
	vpaddd	%zmm5,%zmm4,%zmm5
	vpshufb	%zmm29,%zmm0,%zmm0
	vpshufb	%zmm29,%zmm3,%zmm3
	vpshufb	%zmm29,%zmm4,%zmm4
	vpshufb	%zmm29,%zmm5,%zmm5
.L_16_blocks_ok_gutvpupplrsoEbw:
	vbroadcastf64x2	0(%rdi),%zmm30
	vmovdqa64	1280(%rsp),%zmm8
	vmovdqu64	512(%rsp),%zmm1




	vshufi64x2	$255,%zmm5,%zmm5,%zmm2
	addb	$16,%r15b


	vbroadcastf64x2	16(%rdi),%zmm31
	vmovdqu64	576(%rsp),%zmm18
	vmovdqa64	1344(%rsp),%zmm22







	vpxorq	%zmm30,%zmm0,%zmm0
	vpxorq	%zmm30,%zmm3,%zmm3
	vpxorq	%zmm30,%zmm4,%zmm4
	vpxorq	%zmm30,%zmm5,%zmm5
	vbroadcastf64x2	32(%rdi),%zmm30



.byte	98,243,61,72,68,241,17
.byte	98,243,61,72,68,249,0
.byte	98,115,61,72,68,209,1
.byte	98,115,61,72,68,217,16
	vmovdqu64	640(%rsp),%zmm1
	vmovdqa64	1408(%rsp),%zmm8



.byte	98,146,125,72,220,199
.byte	98,146,101,72,220,223
.byte	98,146,93,72,220,231
.byte	98,146,85,72,220,239
	vbroadcastf64x2	48(%rdi),%zmm31



.byte	98,51,77,64,68,250,16
.byte	98,163,77,64,68,194,1
.byte	98,51,77,64,68,226,17
.byte	98,51,77,64,68,234,0
	vmovdqu64	704(%rsp),%zmm18
	vmovdqa64	1472(%rsp),%zmm22



.byte	98,146,125,72,220,198
.byte	98,146,101,72,220,222
.byte	98,146,93,72,220,230
.byte	98,146,85,72,220,238
	vbroadcastf64x2	64(%rdi),%zmm30



.byte	98,227,61,72,68,225,16
.byte	98,227,61,72,68,233,1
.byte	98,227,61,72,68,201,17
.byte	98,227,61,72,68,217,0


.byte	98,146,125,72,220,199
.byte	98,146,101,72,220,223
.byte	98,146,93,72,220,231
.byte	98,146,85,72,220,239
	vbroadcastf64x2	80(%rdi),%zmm31



	vpternlogq	$0x96,%zmm17,%zmm12,%zmm6
	vpternlogq	$0x96,%zmm19,%zmm13,%zmm7
	vpternlogq	$0x96,%zmm21,%zmm16,%zmm11
	vpternlogq	$0x96,%zmm20,%zmm15,%zmm10



.byte	98,146,125,72,220,198
.byte	98,146,101,72,220,222
.byte	98,146,93,72,220,230
.byte	98,146,85,72,220,238
	vbroadcastf64x2	96(%rdi),%zmm30



	vmovdqu8	512(%rcx,%rax,1),%zmm17
	vmovdqu8	576(%rcx,%rax,1),%zmm19
	vmovdqu8	640(%rcx,%rax,1),%zmm20
	vmovdqu8	704(%rcx,%rax,1),%zmm21



.byte	98,146,125,72,220,199
.byte	98,146,101,72,220,223
.byte	98,146,93,72,220,231
.byte	98,146,85,72,220,239
	vbroadcastf64x2	112(%rdi),%zmm31



.byte	98,51,77,64,68,250,16
.byte	98,163,77,64,68,194,1
.byte	98,51,77,64,68,226,17
.byte	98,51,77,64,68,234,0


.byte	98,146,125,72,220,198
.byte	98,146,101,72,220,222
.byte	98,146,93,72,220,230
.byte	98,146,85,72,220,238
	vbroadcastf64x2	128(%rdi),%zmm30


	vpternlogq	$0x96,%zmm16,%zmm11,%zmm10
	vpternlogq	$0x96,%zmm15,%zmm26,%zmm10

	vpsrldq	$8,%zmm10,%zmm15
	vpslldq	$8,%zmm10,%zmm10

	vmovdqa64	POLY2(%rip),%xmm16
.byte	98,146,125,72,220,199
.byte	98,146,101,72,220,223
.byte	98,146,93,72,220,231
.byte	98,146,85,72,220,239
	vbroadcastf64x2	144(%rdi),%zmm31
	vpternlogq	$0x96,%zmm15,%zmm12,%zmm6
	vpxorq	%zmm24,%zmm6,%zmm6
	vpternlogq	$0x96,%zmm10,%zmm13,%zmm7
	vpxorq	%zmm25,%zmm7,%zmm7
.byte	98,146,125,72,220,198
.byte	98,146,101,72,220,222
.byte	98,146,93,72,220,230
.byte	98,146,85,72,220,238
	vbroadcastf64x2	160(%rdi),%zmm30
	vextracti64x4	$1,%zmm6,%ymm12
	vpxorq	%ymm12,%ymm6,%ymm6
	vextracti32x4	$1,%ymm6,%xmm12
	vpxorq	%xmm12,%xmm6,%xmm6
	vextracti64x4	$1,%zmm7,%ymm13
	vpxorq	%ymm13,%ymm7,%ymm7
	vextracti32x4	$1,%ymm7,%xmm13
	vpxorq	%xmm13,%xmm7,%xmm7
.byte	98,146,125,72,220,199
.byte	98,146,101,72,220,223
.byte	98,146,93,72,220,231
.byte	98,146,85,72,220,239
.byte	98,115,125,0,68,239,1
	vpslldq	$8,%xmm13,%xmm13
	vpxorq	%xmm13,%xmm7,%xmm13
.byte	98,83,125,0,68,229,0
	vpsrldq	$4,%xmm12,%xmm12
.byte	98,83,125,0,68,253,16
	vpslldq	$4,%xmm15,%xmm15

	vpternlogq	$0x96,%xmm12,%xmm15,%xmm6
.byte	98,146,125,72,221,198
.byte	98,146,101,72,221,222
.byte	98,146,93,72,221,230
.byte	98,146,85,72,221,238



	vpxorq	%zmm17,%zmm0,%zmm0
	vpxorq	%zmm19,%zmm3,%zmm3
	vpxorq	%zmm20,%zmm4,%zmm4
	vpxorq	%zmm21,%zmm5,%zmm5



	movq	%r9,%r10
	vmovdqu8	%zmm0,512(%r10,%rax,1)
	vmovdqu8	%zmm3,576(%r10,%rax,1)
	vmovdqu8	%zmm4,640(%r10,%rax,1)
	vmovdqu8	%zmm5,704(%r10,%rax,1)
	vpshufb	%zmm29,%zmm0,%zmm0
	vpshufb	%zmm29,%zmm3,%zmm3
	vpshufb	%zmm29,%zmm4,%zmm4
	vpshufb	%zmm29,%zmm5,%zmm5
	vmovdqa64	%zmm0,1024(%rsp)
	vmovdqa64	%zmm3,1088(%rsp)
	vmovdqa64	%zmm4,1152(%rsp)
	vmovdqa64	%zmm5,1216(%rsp)
	vmovdqa64	%zmm6,%zmm14

	addq	$768,%rax
	subq	$768,%r8
	cmpq	$768,%r8
	jae	.L_encrypt_big_nblocks_pzwgkGgbplFqzaB

.L_no_more_big_nblocks_pzwgkGgbplFqzaB:

	cmpq	$512,%r8
	jae	.L_encrypt_32_blocks_pzwgkGgbplFqzaB

	cmpq	$256,%r8
	jae	.L_encrypt_16_blocks_pzwgkGgbplFqzaB
.L_encrypt_0_blocks_ghash_32_pzwgkGgbplFqzaB:
	movl	%r8d,%r10d
	andl	$~15,%r10d
	movl	$256,%ebx
	subl	%r10d,%ebx
	vmovdqa64	768(%rsp),%zmm13
	vpxorq	%zmm14,%zmm13,%zmm13
	vmovdqu64	0(%rsp,%rbx,1),%zmm12
.byte	98,211,21,72,68,196,17
.byte	98,211,21,72,68,220,0
.byte	98,211,21,72,68,228,1
.byte	98,211,21,72,68,236,16
	vmovdqa64	832(%rsp),%zmm13
	vmovdqu64	64(%rsp,%rbx,1),%zmm12
.byte	98,211,21,72,68,244,17
.byte	98,211,21,72,68,252,0
.byte	98,83,21,72,68,212,1
.byte	98,83,21,72,68,220,16
	vpxorq	%zmm10,%zmm4,%zmm26
	vpxorq	%zmm6,%zmm0,%zmm24
	vpxorq	%zmm7,%zmm3,%zmm25
	vpternlogq	$0x96,%zmm11,%zmm5,%zmm26
	vmovdqa64	896(%rsp),%zmm13
	vmovdqu64	128(%rsp,%rbx,1),%zmm12
.byte	98,211,21,72,68,196,17
.byte	98,211,21,72,68,220,0
.byte	98,211,21,72,68,228,1
.byte	98,211,21,72,68,236,16
	vmovdqa64	960(%rsp),%zmm13
	vmovdqu64	192(%rsp,%rbx,1),%zmm12
.byte	98,211,21,72,68,244,17
.byte	98,211,21,72,68,252,0
.byte	98,83,21,72,68,212,1
.byte	98,83,21,72,68,220,16

	vpternlogq	$0x96,%zmm10,%zmm4,%zmm26
	vpternlogq	$0x96,%zmm6,%zmm0,%zmm24
	vpternlogq	$0x96,%zmm7,%zmm3,%zmm25
	vpternlogq	$0x96,%zmm11,%zmm5,%zmm26
	addl	$256,%ebx
	movl	%r8d,%r10d
	addl	$15,%r10d
	shrl	$4,%r10d
	je	.L_last_num_blocks_is_0_BdcphecxdpdFEsb

	cmpl	$8,%r10d
	je	.L_last_num_blocks_is_8_BdcphecxdpdFEsb
	jb	.L_last_num_blocks_is_7_1_BdcphecxdpdFEsb


	cmpl	$12,%r10d
	je	.L_last_num_blocks_is_12_BdcphecxdpdFEsb
	jb	.L_last_num_blocks_is_11_9_BdcphecxdpdFEsb


	cmpl	$15,%r10d
	je	.L_last_num_blocks_is_15_BdcphecxdpdFEsb
	ja	.L_last_num_blocks_is_16_BdcphecxdpdFEsb
	cmpl	$14,%r10d
	je	.L_last_num_blocks_is_14_BdcphecxdpdFEsb
	jmp	.L_last_num_blocks_is_13_BdcphecxdpdFEsb

.L_last_num_blocks_is_11_9_BdcphecxdpdFEsb:

	cmpl	$10,%r10d
	je	.L_last_num_blocks_is_10_BdcphecxdpdFEsb
	ja	.L_last_num_blocks_is_11_BdcphecxdpdFEsb
	jmp	.L_last_num_blocks_is_9_BdcphecxdpdFEsb

.L_last_num_blocks_is_7_1_BdcphecxdpdFEsb:
	cmpl	$4,%r10d
	je	.L_last_num_blocks_is_4_BdcphecxdpdFEsb
	jb	.L_last_num_blocks_is_3_1_BdcphecxdpdFEsb

	cmpl	$6,%r10d
	ja	.L_last_num_blocks_is_7_BdcphecxdpdFEsb
	je	.L_last_num_blocks_is_6_BdcphecxdpdFEsb
	jmp	.L_last_num_blocks_is_5_BdcphecxdpdFEsb

.L_last_num_blocks_is_3_1_BdcphecxdpdFEsb:

	cmpl	$2,%r10d
	ja	.L_last_num_blocks_is_3_BdcphecxdpdFEsb
	je	.L_last_num_blocks_is_2_BdcphecxdpdFEsb
.L_last_num_blocks_is_1_BdcphecxdpdFEsb:
	leaq	byte64_len_to_mask_table(%rip),%r10
	movq	%r8,%r11
	kmovq	(%r10,%r11,8),%k1
	cmpl	$255,%r15d
	jae	.L_16_blocks_overflow_azzgqhumkfnyDqm
	vpaddd	%xmm28,%xmm2,%xmm0
	jmp	.L_16_blocks_ok_azzgqhumkfnyDqm

.L_16_blocks_overflow_azzgqhumkfnyDqm:
	vpshufb	%zmm29,%zmm2,%zmm2
	vpaddd	ddq_add_1234(%rip),%zmm2,%zmm0
	vpshufb	%xmm29,%xmm0,%xmm0
.L_16_blocks_ok_azzgqhumkfnyDqm:




	vbroadcastf64x2	0(%rdi),%zmm30
	vmovdqa64	1024(%rsp),%zmm8
	vmovdqu64	0(%rsp,%rbx,1),%zmm1
	vextracti32x4	$0,%zmm0,%xmm2
	vshufi64x2	$0,%zmm2,%zmm2,%zmm2


	vbroadcastf64x2	16(%rdi),%zmm31
	vmovdqu64	64(%rsp,%rbx,1),%zmm18
	vmovdqa64	1088(%rsp),%zmm22
	vpxorq	%xmm30,%xmm0,%xmm0
	vbroadcastf64x2	32(%rdi),%zmm30


.byte	98,115,61,72,68,241,17
.byte	98,243,61,72,68,249,0
.byte	98,115,61,72,68,209,1
.byte	98,115,61,72,68,217,16
	vmovdqu64	128(%rsp,%rbx,1),%zmm1
	vmovdqa64	1152(%rsp),%zmm8
.byte	98,146,125,8,220,199
	vbroadcastf64x2	48(%rdi),%zmm31


.byte	98,51,77,64,68,250,16
.byte	98,163,77,64,68,194,1
.byte	98,51,77,64,68,226,17
.byte	98,51,77,64,68,234,0
	vmovdqu64	192(%rsp,%rbx,1),%zmm18
	vmovdqa64	1216(%rsp),%zmm22
.byte	98,146,125,8,220,198
	vbroadcastf64x2	64(%rdi),%zmm30


.byte	98,227,61,72,68,225,16
.byte	98,227,61,72,68,233,1
.byte	98,227,61,72,68,201,17
.byte	98,227,61,72,68,217,0
.byte	98,146,125,8,220,199
	vbroadcastf64x2	80(%rdi),%zmm31


	vpternlogq	$0x96,%zmm17,%zmm12,%zmm14
	vpternlogq	$0x96,%zmm19,%zmm13,%zmm7
	vpternlogq	$0x96,%zmm21,%zmm16,%zmm11
	vpternlogq	$0x96,%zmm20,%zmm15,%zmm10
.byte	98,146,125,8,220,198
	vbroadcastf64x2	96(%rdi),%zmm30
	vmovdqu8	0(%rcx,%rax,1),%xmm17{%k1}{z}
.byte	98,146,125,8,220,199
	vbroadcastf64x2	112(%rdi),%zmm31


.byte	98,51,77,64,68,250,16
.byte	98,163,77,64,68,194,1
.byte	98,51,77,64,68,226,17
.byte	98,51,77,64,68,234,0
.byte	98,146,125,8,220,198
	vbroadcastf64x2	128(%rdi),%zmm30
	vpternlogq	$0x96,%zmm16,%zmm11,%zmm10
	vpternlogq	$0x96,%zmm12,%zmm14,%zmm24
	vpternlogq	$0x96,%zmm13,%zmm7,%zmm25
	vpternlogq	$0x96,%zmm15,%zmm10,%zmm26
.byte	98,146,125,8,220,199
	vbroadcastf64x2	144(%rdi),%zmm31
.byte	98,146,125,8,220,198
	vbroadcastf64x2	160(%rdi),%zmm30
.byte	98,146,125,8,220,199
.byte	98,146,125,8,221,198
	vpxorq	%xmm17,%xmm0,%xmm0
	vextracti32x4	$0,%zmm0,%xmm11
	movq	%r9,%r10
	vmovdqu8	%xmm0,0(%r10,%rax,1){%k1}
	vmovdqu8	%zmm0,%zmm0{%k1}{z}
	vpshufb	%xmm29,%xmm0,%xmm17
	vextracti32x4	$0,%zmm17,%xmm7
	leaq	80(%rsi),%r10


	cmpq	$16,%r8
	jl	.L_small_initial_partial_block_dnmqhGDjDpgnine





	subq	$16,%r8
	movl	$0,(%rdx)
	vmovdqu64	240(%r10),%xmm1
.byte	98,243,117,0,68,225,1
.byte	98,243,117,0,68,233,16
.byte	98,243,117,0,68,193,17
.byte	98,243,117,0,68,217,0
	vpxorq	%zmm26,%zmm4,%zmm4
	vpxorq	%zmm24,%zmm0,%zmm0
	vpxorq	%zmm25,%zmm3,%zmm3

	vpxorq	%zmm5,%zmm4,%zmm4
	vpsrldq	$8,%zmm4,%zmm30
	vpslldq	$8,%zmm4,%zmm31
	vpxorq	%zmm30,%zmm0,%zmm0
	vpxorq	%zmm31,%zmm3,%zmm3
	vextracti64x4	$1,%zmm0,%ymm30
	vpxorq	%ymm30,%ymm0,%ymm0
	vextracti32x4	$1,%ymm0,%xmm30
	vpxorq	%xmm30,%xmm0,%xmm0
	vextracti64x4	$1,%zmm3,%ymm31
	vpxorq	%ymm31,%ymm3,%ymm3
	vextracti32x4	$1,%ymm3,%xmm31
	vpxorq	%xmm31,%xmm3,%xmm3
	vmovdqa64	POLY2(%rip),%xmm1


.byte	98,243,117,8,68,227,1
	vpslldq	$8,%xmm4,%xmm4
	vpxorq	%xmm4,%xmm3,%xmm4


.byte	98,243,117,8,68,236,0
	vpsrldq	$4,%xmm5,%xmm5
.byte	98,115,117,8,68,244,16
	vpslldq	$4,%xmm14,%xmm14
	vpternlogq	$0x96,%xmm0,%xmm5,%xmm14

	jmp	.L_small_initial_compute_done_dnmqhGDjDpgnine
.L_small_initial_partial_block_dnmqhGDjDpgnine:








	movl	%r8d,(%rdx)
	vmovdqu64	%xmm11,16(%rsi)


	vpsrldq	$8,%zmm26,%zmm0
	vpslldq	$8,%zmm26,%zmm3
	vpxorq	%zmm0,%zmm24,%zmm24
	vpxorq	%zmm3,%zmm25,%zmm25
	vextracti64x4	$1,%zmm24,%ymm0
	vpxorq	%ymm0,%ymm24,%ymm24
	vextracti32x4	$1,%ymm24,%xmm0
	vpxorq	%xmm0,%xmm24,%xmm24
	vextracti64x4	$1,%zmm25,%ymm3
	vpxorq	%ymm3,%ymm25,%ymm25
	vextracti32x4	$1,%ymm25,%xmm3
	vpxorq	%xmm3,%xmm25,%xmm25
	vmovdqa64	POLY2(%rip),%xmm0


.byte	98,147,125,8,68,217,1
	vpslldq	$8,%xmm3,%xmm3
	vpxorq	%xmm3,%xmm25,%xmm3


.byte	98,243,125,8,68,227,0
	vpsrldq	$4,%xmm4,%xmm4
.byte	98,115,125,8,68,243,16
	vpslldq	$4,%xmm14,%xmm14
	vpternlogq	$0x96,%xmm24,%xmm4,%xmm14












	vpxorq	%xmm7,%xmm14,%xmm14

	jmp	.L_after_reduction_dnmqhGDjDpgnine
.L_small_initial_compute_done_dnmqhGDjDpgnine:
.L_after_reduction_dnmqhGDjDpgnine:
	jmp	.L_last_blocks_done_BdcphecxdpdFEsb
.L_last_num_blocks_is_2_BdcphecxdpdFEsb:
	leaq	byte64_len_to_mask_table(%rip),%r10
	movq	%r8,%r11
	kmovq	(%r10,%r11,8),%k1
	cmpl	$254,%r15d
	jae	.L_16_blocks_overflow_yekhBCebufcAiFh
	vpaddd	%ymm28,%ymm2,%ymm0
	jmp	.L_16_blocks_ok_yekhBCebufcAiFh

.L_16_blocks_overflow_yekhBCebufcAiFh:
	vpshufb	%zmm29,%zmm2,%zmm2
	vpaddd	ddq_add_1234(%rip),%zmm2,%zmm0
	vpshufb	%ymm29,%ymm0,%ymm0
.L_16_blocks_ok_yekhBCebufcAiFh:




	vbroadcastf64x2	0(%rdi),%zmm30
	vmovdqa64	1024(%rsp),%zmm8
	vmovdqu64	0(%rsp,%rbx,1),%zmm1
	vextracti32x4	$1,%zmm0,%xmm2
	vshufi64x2	$0,%zmm2,%zmm2,%zmm2


	vbroadcastf64x2	16(%rdi),%zmm31
	vmovdqu64	64(%rsp,%rbx,1),%zmm18
	vmovdqa64	1088(%rsp),%zmm22
	vpxorq	%ymm30,%ymm0,%ymm0
	vbroadcastf64x2	32(%rdi),%zmm30


.byte	98,115,61,72,68,241,17
.byte	98,243,61,72,68,249,0
.byte	98,115,61,72,68,209,1
.byte	98,115,61,72,68,217,16
	vmovdqu64	128(%rsp,%rbx,1),%zmm1
	vmovdqa64	1152(%rsp),%zmm8
.byte	98,146,125,40,220,199
	vbroadcastf64x2	48(%rdi),%zmm31


.byte	98,51,77,64,68,250,16
.byte	98,163,77,64,68,194,1
.byte	98,51,77,64,68,226,17
.byte	98,51,77,64,68,234,0
	vmovdqu64	192(%rsp,%rbx,1),%zmm18
	vmovdqa64	1216(%rsp),%zmm22
.byte	98,146,125,40,220,198
	vbroadcastf64x2	64(%rdi),%zmm30


.byte	98,227,61,72,68,225,16
.byte	98,227,61,72,68,233,1
.byte	98,227,61,72,68,201,17
.byte	98,227,61,72,68,217,0
.byte	98,146,125,40,220,199
	vbroadcastf64x2	80(%rdi),%zmm31


	vpternlogq	$0x96,%zmm17,%zmm12,%zmm14
	vpternlogq	$0x96,%zmm19,%zmm13,%zmm7
	vpternlogq	$0x96,%zmm21,%zmm16,%zmm11
	vpternlogq	$0x96,%zmm20,%zmm15,%zmm10
.byte	98,146,125,40,220,198
	vbroadcastf64x2	96(%rdi),%zmm30
	vmovdqu8	0(%rcx,%rax,1),%ymm17{%k1}{z}
.byte	98,146,125,40,220,199
	vbroadcastf64x2	112(%rdi),%zmm31


.byte	98,51,77,64,68,250,16
.byte	98,163,77,64,68,194,1
.byte	98,51,77,64,68,226,17
.byte	98,51,77,64,68,234,0
.byte	98,146,125,40,220,198
	vbroadcastf64x2	128(%rdi),%zmm30
	vpternlogq	$0x96,%zmm16,%zmm11,%zmm10
	vpternlogq	$0x96,%zmm12,%zmm14,%zmm24
	vpternlogq	$0x96,%zmm13,%zmm7,%zmm25
	vpternlogq	$0x96,%zmm15,%zmm10,%zmm26
.byte	98,146,125,40,220,199
	vbroadcastf64x2	144(%rdi),%zmm31
.byte	98,146,125,40,220,198
	vbroadcastf64x2	160(%rdi),%zmm30
.byte	98,146,125,40,220,199
.byte	98,146,125,40,221,198
	vpxorq	%ymm17,%ymm0,%ymm0
	vextracti32x4	$1,%zmm0,%xmm11
	movq	%r9,%r10
	vmovdqu8	%ymm0,0(%r10,%rax,1){%k1}
	vmovdqu8	%zmm0,%zmm0{%k1}{z}
	vpshufb	%ymm29,%ymm0,%ymm17
	vextracti32x4	$1,%zmm17,%xmm7
	leaq	80(%rsi),%r10
	subq	$16 * (2 - 1),%r8


	cmpq	$16,%r8
	jl	.L_small_initial_partial_block_jwyvkjdvesmxGpv





	subq	$16,%r8
	movl	$0,(%rdx)
	vmovdqu64	224(%r10),%ymm1
.byte	98,243,117,32,68,225,1
.byte	98,243,117,32,68,233,16
.byte	98,243,117,32,68,193,17
.byte	98,243,117,32,68,217,0
	vpxorq	%zmm26,%zmm4,%zmm4
	vpxorq	%zmm24,%zmm0,%zmm0
	vpxorq	%zmm25,%zmm3,%zmm3

	vpxorq	%zmm5,%zmm4,%zmm4
	vpsrldq	$8,%zmm4,%zmm30
	vpslldq	$8,%zmm4,%zmm31
	vpxorq	%zmm30,%zmm0,%zmm0
	vpxorq	%zmm31,%zmm3,%zmm3
	vextracti64x4	$1,%zmm0,%ymm30
	vpxorq	%ymm30,%ymm0,%ymm0
	vextracti32x4	$1,%ymm0,%xmm30
	vpxorq	%xmm30,%xmm0,%xmm0
	vextracti64x4	$1,%zmm3,%ymm31
	vpxorq	%ymm31,%ymm3,%ymm3
	vextracti32x4	$1,%ymm3,%xmm31
	vpxorq	%xmm31,%xmm3,%xmm3
	vmovdqa64	POLY2(%rip),%xmm1


.byte	98,243,117,8,68,227,1
	vpslldq	$8,%xmm4,%xmm4
	vpxorq	%xmm4,%xmm3,%xmm4


.byte	98,243,117,8,68,236,0
	vpsrldq	$4,%xmm5,%xmm5
.byte	98,115,117,8,68,244,16
	vpslldq	$4,%xmm14,%xmm14
	vpternlogq	$0x96,%xmm0,%xmm5,%xmm14

	jmp	.L_small_initial_compute_done_jwyvkjdvesmxGpv
.L_small_initial_partial_block_jwyvkjdvesmxGpv:








	movl	%r8d,(%rdx)
	vmovdqu64	%xmm11,16(%rsi)
	vmovdqu64	240(%r10),%xmm1
.byte	98,243,117,0,68,225,1
.byte	98,243,117,0,68,233,16
.byte	98,243,117,0,68,193,17
.byte	98,243,117,0,68,217,0
	vpxorq	%zmm26,%zmm4,%zmm4
	vpxorq	%zmm24,%zmm0,%zmm0
	vpxorq	%zmm25,%zmm3,%zmm3

	vpxorq	%zmm5,%zmm4,%zmm4
	vpsrldq	$8,%zmm4,%zmm30
	vpslldq	$8,%zmm4,%zmm31
	vpxorq	%zmm30,%zmm0,%zmm0
	vpxorq	%zmm31,%zmm3,%zmm3
	vextracti64x4	$1,%zmm0,%ymm30
	vpxorq	%ymm30,%ymm0,%ymm0
	vextracti32x4	$1,%ymm0,%xmm30
	vpxorq	%xmm30,%xmm0,%xmm0
	vextracti64x4	$1,%zmm3,%ymm31
	vpxorq	%ymm31,%ymm3,%ymm3
	vextracti32x4	$1,%ymm3,%xmm31
	vpxorq	%xmm31,%xmm3,%xmm3
	vmovdqa64	POLY2(%rip),%xmm1


.byte	98,243,117,8,68,227,1
	vpslldq	$8,%xmm4,%xmm4
	vpxorq	%xmm4,%xmm3,%xmm4


.byte	98,243,117,8,68,236,0
	vpsrldq	$4,%xmm5,%xmm5
.byte	98,115,117,8,68,244,16
	vpslldq	$4,%xmm14,%xmm14
	vpternlogq	$0x96,%xmm0,%xmm5,%xmm14

.L_small_initial_compute_done_jwyvkjdvesmxGpv:

	orq	%r8,%r8
	je	.L_after_reduction_jwyvkjdvesmxGpv
	vpxorq	%xmm7,%xmm14,%xmm14
.L_after_reduction_jwyvkjdvesmxGpv:
	jmp	.L_last_blocks_done_BdcphecxdpdFEsb
.L_last_num_blocks_is_3_BdcphecxdpdFEsb:
	leaq	byte64_len_to_mask_table(%rip),%r10
	movq	%r8,%r11
	kmovq	(%r10,%r11,8),%k1
	cmpl	$253,%r15d
	jae	.L_16_blocks_overflow_usjywjwllaabozc
	vpaddd	%zmm28,%zmm2,%zmm0
	jmp	.L_16_blocks_ok_usjywjwllaabozc

.L_16_blocks_overflow_usjywjwllaabozc:
	vpshufb	%zmm29,%zmm2,%zmm2
	vpaddd	ddq_add_1234(%rip),%zmm2,%zmm0
	vpshufb	%zmm29,%zmm0,%zmm0
.L_16_blocks_ok_usjywjwllaabozc:




	vbroadcastf64x2	0(%rdi),%zmm30
	vmovdqa64	1024(%rsp),%zmm8
	vmovdqu64	0(%rsp,%rbx,1),%zmm1
	vextracti32x4	$2,%zmm0,%xmm2
	vshufi64x2	$0,%zmm2,%zmm2,%zmm2


	vbroadcastf64x2	16(%rdi),%zmm31
	vmovdqu64	64(%rsp,%rbx,1),%zmm18
	vmovdqa64	1088(%rsp),%zmm22
	vpxorq	%zmm30,%zmm0,%zmm0
	vbroadcastf64x2	32(%rdi),%zmm30


.byte	98,115,61,72,68,241,17
.byte	98,243,61,72,68,249,0
.byte	98,115,61,72,68,209,1
.byte	98,115,61,72,68,217,16
	vmovdqu64	128(%rsp,%rbx,1),%zmm1
	vmovdqa64	1152(%rsp),%zmm8
.byte	98,146,125,72,220,199
	vbroadcastf64x2	48(%rdi),%zmm31


.byte	98,51,77,64,68,250,16
.byte	98,163,77,64,68,194,1
.byte	98,51,77,64,68,226,17
.byte	98,51,77,64,68,234,0
	vmovdqu64	192(%rsp,%rbx,1),%zmm18
	vmovdqa64	1216(%rsp),%zmm22
.byte	98,146,125,72,220,198
	vbroadcastf64x2	64(%rdi),%zmm30


.byte	98,227,61,72,68,225,16
.byte	98,227,61,72,68,233,1
.byte	98,227,61,72,68,201,17
.byte	98,227,61,72,68,217,0
.byte	98,146,125,72,220,199
	vbroadcastf64x2	80(%rdi),%zmm31


	vpternlogq	$0x96,%zmm17,%zmm12,%zmm14
	vpternlogq	$0x96,%zmm19,%zmm13,%zmm7
	vpternlogq	$0x96,%zmm21,%zmm16,%zmm11
	vpternlogq	$0x96,%zmm20,%zmm15,%zmm10
.byte	98,146,125,72,220,198
	vbroadcastf64x2	96(%rdi),%zmm30
	vmovdqu8	0(%rcx,%rax,1),%zmm17{%k1}{z}
.byte	98,146,125,72,220,199
	vbroadcastf64x2	112(%rdi),%zmm31


.byte	98,51,77,64,68,250,16
.byte	98,163,77,64,68,194,1
.byte	98,51,77,64,68,226,17
.byte	98,51,77,64,68,234,0
.byte	98,146,125,72,220,198
	vbroadcastf64x2	128(%rdi),%zmm30
	vpternlogq	$0x96,%zmm16,%zmm11,%zmm10
	vpternlogq	$0x96,%zmm12,%zmm14,%zmm24
	vpternlogq	$0x96,%zmm13,%zmm7,%zmm25
	vpternlogq	$0x96,%zmm15,%zmm10,%zmm26
.byte	98,146,125,72,220,199
	vbroadcastf64x2	144(%rdi),%zmm31
.byte	98,146,125,72,220,198
	vbroadcastf64x2	160(%rdi),%zmm30
.byte	98,146,125,72,220,199
.byte	98,146,125,72,221,198
	vpxorq	%zmm17,%zmm0,%zmm0
	vextracti32x4	$2,%zmm0,%xmm11
	movq	%r9,%r10
	vmovdqu8	%zmm0,0(%r10,%rax,1){%k1}
	vmovdqu8	%zmm0,%zmm0{%k1}{z}
	vpshufb	%zmm29,%zmm0,%zmm17
	vextracti32x4	$2,%zmm17,%xmm7
	leaq	80(%rsi),%r10
	subq	$16 * (3 - 1),%r8


	cmpq	$16,%r8
	jl	.L_small_initial_partial_block_lmkDAitgFzCCoEA





	subq	$16,%r8
	movl	$0,(%rdx)
	vmovdqu64	208(%r10),%ymm1
	vinserti64x2	$2,240(%r10),%zmm1,%zmm1
.byte	98,243,117,64,68,225,1
.byte	98,243,117,64,68,233,16
.byte	98,243,117,64,68,193,17
.byte	98,243,117,64,68,217,0
	vpxorq	%zmm26,%zmm4,%zmm4
	vpxorq	%zmm24,%zmm0,%zmm0
	vpxorq	%zmm25,%zmm3,%zmm3

	vpxorq	%zmm5,%zmm4,%zmm4
	vpsrldq	$8,%zmm4,%zmm30
	vpslldq	$8,%zmm4,%zmm31
	vpxorq	%zmm30,%zmm0,%zmm0
	vpxorq	%zmm31,%zmm3,%zmm3
	vextracti64x4	$1,%zmm0,%ymm30
	vpxorq	%ymm30,%ymm0,%ymm0
	vextracti32x4	$1,%ymm0,%xmm30
	vpxorq	%xmm30,%xmm0,%xmm0
	vextracti64x4	$1,%zmm3,%ymm31
	vpxorq	%ymm31,%ymm3,%ymm3
	vextracti32x4	$1,%ymm3,%xmm31
	vpxorq	%xmm31,%xmm3,%xmm3
	vmovdqa64	POLY2(%rip),%xmm1


.byte	98,243,117,8,68,227,1
	vpslldq	$8,%xmm4,%xmm4
	vpxorq	%xmm4,%xmm3,%xmm4


.byte	98,243,117,8,68,236,0
	vpsrldq	$4,%xmm5,%xmm5
.byte	98,115,117,8,68,244,16
	vpslldq	$4,%xmm14,%xmm14
	vpternlogq	$0x96,%xmm0,%xmm5,%xmm14

	jmp	.L_small_initial_compute_done_lmkDAitgFzCCoEA
.L_small_initial_partial_block_lmkDAitgFzCCoEA:








	movl	%r8d,(%rdx)
	vmovdqu64	%xmm11,16(%rsi)
	vmovdqu64	224(%r10),%ymm1
.byte	98,243,117,32,68,225,1
.byte	98,243,117,32,68,233,16
.byte	98,243,117,32,68,193,17
.byte	98,243,117,32,68,217,0
	vpxorq	%zmm26,%zmm4,%zmm4
	vpxorq	%zmm24,%zmm0,%zmm0
	vpxorq	%zmm25,%zmm3,%zmm3

	vpxorq	%zmm5,%zmm4,%zmm4
	vpsrldq	$8,%zmm4,%zmm30
	vpslldq	$8,%zmm4,%zmm31
	vpxorq	%zmm30,%zmm0,%zmm0
	vpxorq	%zmm31,%zmm3,%zmm3
	vextracti64x4	$1,%zmm0,%ymm30
	vpxorq	%ymm30,%ymm0,%ymm0
	vextracti32x4	$1,%ymm0,%xmm30
	vpxorq	%xmm30,%xmm0,%xmm0
	vextracti64x4	$1,%zmm3,%ymm31
	vpxorq	%ymm31,%ymm3,%ymm3
	vextracti32x4	$1,%ymm3,%xmm31
	vpxorq	%xmm31,%xmm3,%xmm3
	vmovdqa64	POLY2(%rip),%xmm1


.byte	98,243,117,8,68,227,1
	vpslldq	$8,%xmm4,%xmm4
	vpxorq	%xmm4,%xmm3,%xmm4


.byte	98,243,117,8,68,236,0
	vpsrldq	$4,%xmm5,%xmm5
.byte	98,115,117,8,68,244,16
	vpslldq	$4,%xmm14,%xmm14
	vpternlogq	$0x96,%xmm0,%xmm5,%xmm14

.L_small_initial_compute_done_lmkDAitgFzCCoEA:

	orq	%r8,%r8
	je	.L_after_reduction_lmkDAitgFzCCoEA
	vpxorq	%xmm7,%xmm14,%xmm14
.L_after_reduction_lmkDAitgFzCCoEA:
	jmp	.L_last_blocks_done_BdcphecxdpdFEsb
.L_last_num_blocks_is_4_BdcphecxdpdFEsb:
	leaq	byte64_len_to_mask_table(%rip),%r10
	movq	%r8,%r11
	kmovq	(%r10,%r11,8),%k1
	cmpl	$252,%r15d
	jae	.L_16_blocks_overflow_xobkzaAwcplaFgb
	vpaddd	%zmm28,%zmm2,%zmm0
	jmp	.L_16_blocks_ok_xobkzaAwcplaFgb

.L_16_blocks_overflow_xobkzaAwcplaFgb:
	vpshufb	%zmm29,%zmm2,%zmm2
	vpaddd	ddq_add_1234(%rip),%zmm2,%zmm0
	vpshufb	%zmm29,%zmm0,%zmm0
.L_16_blocks_ok_xobkzaAwcplaFgb:




	vbroadcastf64x2	0(%rdi),%zmm30
	vmovdqa64	1024(%rsp),%zmm8
	vmovdqu64	0(%rsp,%rbx,1),%zmm1
	vextracti32x4	$3,%zmm0,%xmm2
	vshufi64x2	$0,%zmm2,%zmm2,%zmm2


	vbroadcastf64x2	16(%rdi),%zmm31
	vmovdqu64	64(%rsp,%rbx,1),%zmm18
	vmovdqa64	1088(%rsp),%zmm22
	vpxorq	%zmm30,%zmm0,%zmm0
	vbroadcastf64x2	32(%rdi),%zmm30


.byte	98,115,61,72,68,241,17
.byte	98,243,61,72,68,249,0
.byte	98,115,61,72,68,209,1
.byte	98,115,61,72,68,217,16
	vmovdqu64	128(%rsp,%rbx,1),%zmm1
	vmovdqa64	1152(%rsp),%zmm8
.byte	98,146,125,72,220,199
	vbroadcastf64x2	48(%rdi),%zmm31


.byte	98,51,77,64,68,250,16
.byte	98,163,77,64,68,194,1
.byte	98,51,77,64,68,226,17
.byte	98,51,77,64,68,234,0
	vmovdqu64	192(%rsp,%rbx,1),%zmm18
	vmovdqa64	1216(%rsp),%zmm22
.byte	98,146,125,72,220,198
	vbroadcastf64x2	64(%rdi),%zmm30


.byte	98,227,61,72,68,225,16
.byte	98,227,61,72,68,233,1
.byte	98,227,61,72,68,201,17
.byte	98,227,61,72,68,217,0
.byte	98,146,125,72,220,199
	vbroadcastf64x2	80(%rdi),%zmm31


	vpternlogq	$0x96,%zmm17,%zmm12,%zmm14
	vpternlogq	$0x96,%zmm19,%zmm13,%zmm7
	vpternlogq	$0x96,%zmm21,%zmm16,%zmm11
	vpternlogq	$0x96,%zmm20,%zmm15,%zmm10
.byte	98,146,125,72,220,198
	vbroadcastf64x2	96(%rdi),%zmm30
	vmovdqu8	0(%rcx,%rax,1),%zmm17{%k1}{z}
.byte	98,146,125,72,220,199
	vbroadcastf64x2	112(%rdi),%zmm31


.byte	98,51,77,64,68,250,16
.byte	98,163,77,64,68,194,1
.byte	98,51,77,64,68,226,17
.byte	98,51,77,64,68,234,0
.byte	98,146,125,72,220,198
	vbroadcastf64x2	128(%rdi),%zmm30
	vpternlogq	$0x96,%zmm16,%zmm11,%zmm10
	vpternlogq	$0x96,%zmm12,%zmm14,%zmm24
	vpternlogq	$0x96,%zmm13,%zmm7,%zmm25
	vpternlogq	$0x96,%zmm15,%zmm10,%zmm26
.byte	98,146,125,72,220,199
	vbroadcastf64x2	144(%rdi),%zmm31
.byte	98,146,125,72,220,198
	vbroadcastf64x2	160(%rdi),%zmm30
.byte	98,146,125,72,220,199
.byte	98,146,125,72,221,198
	vpxorq	%zmm17,%zmm0,%zmm0
	vextracti32x4	$3,%zmm0,%xmm11
	movq	%r9,%r10
	vmovdqu8	%zmm0,0(%r10,%rax,1){%k1}
	vmovdqu8	%zmm0,%zmm0{%k1}{z}
	vpshufb	%zmm29,%zmm0,%zmm17
	vextracti32x4	$3,%zmm17,%xmm7
	leaq	80(%rsi),%r10
	subq	$16 * (4 - 1),%r8


	cmpq	$16,%r8
	jl	.L_small_initial_partial_block_genGClghdbzBqhw





	subq	$16,%r8
	movl	$0,(%rdx)
	vmovdqu64	192(%r10),%zmm1
.byte	98,115,117,64,68,193,17
.byte	98,227,117,64,68,241,0
.byte	98,99,117,64,68,241,1
.byte	98,99,117,64,68,249,16

	vpxorq	%zmm26,%zmm30,%zmm30
	vpxorq	%zmm24,%zmm8,%zmm8
	vpxorq	%zmm25,%zmm22,%zmm22

	vpxorq	%zmm31,%zmm30,%zmm30
	vpsrldq	$8,%zmm30,%zmm4
	vpslldq	$8,%zmm30,%zmm5
	vpxorq	%zmm4,%zmm8,%zmm0
	vpxorq	%zmm5,%zmm22,%zmm3
	vextracti64x4	$1,%zmm0,%ymm30
	vpxorq	%ymm30,%ymm0,%ymm0
	vextracti32x4	$1,%ymm0,%xmm30
	vpxorq	%xmm30,%xmm0,%xmm0
	vextracti64x4	$1,%zmm3,%ymm31
	vpxorq	%ymm31,%ymm3,%ymm3
	vextracti32x4	$1,%ymm3,%xmm31
	vpxorq	%xmm31,%xmm3,%xmm3
	vmovdqa64	POLY2(%rip),%xmm1


.byte	98,243,117,8,68,227,1
	vpslldq	$8,%xmm4,%xmm4
	vpxorq	%xmm4,%xmm3,%xmm4


.byte	98,243,117,8,68,236,0
	vpsrldq	$4,%xmm5,%xmm5
.byte	98,115,117,8,68,244,16
	vpslldq	$4,%xmm14,%xmm14
	vpternlogq	$0x96,%xmm0,%xmm5,%xmm14

	jmp	.L_small_initial_compute_done_genGClghdbzBqhw
.L_small_initial_partial_block_genGClghdbzBqhw:








	movl	%r8d,(%rdx)
	vmovdqu64	%xmm11,16(%rsi)
	vmovdqu64	208(%r10),%ymm1
	vinserti64x2	$2,240(%r10),%zmm1,%zmm1
.byte	98,243,117,64,68,225,1
.byte	98,243,117,64,68,233,16
.byte	98,243,117,64,68,193,17
.byte	98,243,117,64,68,217,0
	vpxorq	%zmm26,%zmm4,%zmm4
	vpxorq	%zmm24,%zmm0,%zmm0
	vpxorq	%zmm25,%zmm3,%zmm3

	vpxorq	%zmm5,%zmm4,%zmm4
	vpsrldq	$8,%zmm4,%zmm30
	vpslldq	$8,%zmm4,%zmm31
	vpxorq	%zmm30,%zmm0,%zmm0
	vpxorq	%zmm31,%zmm3,%zmm3
	vextracti64x4	$1,%zmm0,%ymm30
	vpxorq	%ymm30,%ymm0,%ymm0
	vextracti32x4	$1,%ymm0,%xmm30
	vpxorq	%xmm30,%xmm0,%xmm0
	vextracti64x4	$1,%zmm3,%ymm31
	vpxorq	%ymm31,%ymm3,%ymm3
	vextracti32x4	$1,%ymm3,%xmm31
	vpxorq	%xmm31,%xmm3,%xmm3
	vmovdqa64	POLY2(%rip),%xmm1


.byte	98,243,117,8,68,227,1
	vpslldq	$8,%xmm4,%xmm4
	vpxorq	%xmm4,%xmm3,%xmm4


.byte	98,243,117,8,68,236,0
	vpsrldq	$4,%xmm5,%xmm5
.byte	98,115,117,8,68,244,16
	vpslldq	$4,%xmm14,%xmm14
	vpternlogq	$0x96,%xmm0,%xmm5,%xmm14

.L_small_initial_compute_done_genGClghdbzBqhw:

	orq	%r8,%r8
	je	.L_after_reduction_genGClghdbzBqhw
	vpxorq	%xmm7,%xmm14,%xmm14
.L_after_reduction_genGClghdbzBqhw:
	jmp	.L_last_blocks_done_BdcphecxdpdFEsb
.L_last_num_blocks_is_5_BdcphecxdpdFEsb:
	leaq	byte64_len_to_mask_table(%rip),%r10
	movq	%r8,%r11
	subq	$64,%r11
	kmovq	(%r10,%r11,8),%k1
	cmpl	$251,%r15d
	jae	.L_16_blocks_overflow_bpsqdGAhjeggABn
	vpaddd	%zmm28,%zmm2,%zmm0
	vpaddd	%xmm27,%xmm0,%xmm3
	jmp	.L_16_blocks_ok_bpsqdGAhjeggABn

.L_16_blocks_overflow_bpsqdGAhjeggABn:
	vpshufb	%zmm29,%zmm2,%zmm2
	vpaddd	ddq_add_1234(%rip),%zmm2,%zmm0
	vmovdqa64	ddq_add_4444(%rip),%zmm5
	vpaddd	%zmm5,%zmm0,%zmm3
	vpshufb	%zmm29,%zmm0,%zmm0
	vpshufb	%xmm29,%xmm3,%xmm3
.L_16_blocks_ok_bpsqdGAhjeggABn:




	vbroadcastf64x2	0(%rdi),%zmm30
	vmovdqa64	1024(%rsp),%zmm8
	vmovdqu64	0(%rsp,%rbx,1),%zmm1
	vextracti32x4	$0,%zmm3,%xmm2
	vshufi64x2	$0,%zmm2,%zmm2,%zmm2


	vbroadcastf64x2	16(%rdi),%zmm31
	vmovdqu64	64(%rsp,%rbx,1),%zmm18
	vmovdqa64	1088(%rsp),%zmm22
	vpxorq	%zmm30,%zmm0,%zmm0
	vpxorq	%xmm30,%xmm3,%xmm3
	vbroadcastf64x2	32(%rdi),%zmm30


.byte	98,115,61,72,68,241,17
.byte	98,243,61,72,68,249,0
.byte	98,115,61,72,68,209,1
.byte	98,115,61,72,68,217,16
	vmovdqu64	128(%rsp,%rbx,1),%zmm1
	vmovdqa64	1152(%rsp),%zmm8
.byte	98,146,125,72,220,199
.byte	98,146,101,8,220,223
	vbroadcastf64x2	48(%rdi),%zmm31


.byte	98,51,77,64,68,250,16
.byte	98,163,77,64,68,194,1
.byte	98,51,77,64,68,226,17
.byte	98,51,77,64,68,234,0
	vmovdqu64	192(%rsp,%rbx,1),%zmm18
	vmovdqa64	1216(%rsp),%zmm22
.byte	98,146,125,72,220,198
.byte	98,146,101,8,220,222
	vbroadcastf64x2	64(%rdi),%zmm30


.byte	98,227,61,72,68,225,16
.byte	98,227,61,72,68,233,1
.byte	98,227,61,72,68,201,17
.byte	98,227,61,72,68,217,0
.byte	98,146,125,72,220,199
.byte	98,146,101,8,220,223
	vbroadcastf64x2	80(%rdi),%zmm31


	vpternlogq	$0x96,%zmm17,%zmm12,%zmm14
	vpternlogq	$0x96,%zmm19,%zmm13,%zmm7
	vpternlogq	$0x96,%zmm21,%zmm16,%zmm11
	vpternlogq	$0x96,%zmm20,%zmm15,%zmm10
.byte	98,146,125,72,220,198
.byte	98,146,101,8,220,222
	vbroadcastf64x2	96(%rdi),%zmm30
	vmovdqu8	0(%rcx,%rax,1),%zmm17
	vmovdqu8	64(%rcx,%rax,1),%xmm19{%k1}{z}
.byte	98,146,125,72,220,199
.byte	98,146,101,8,220,223
	vbroadcastf64x2	112(%rdi),%zmm31


.byte	98,51,77,64,68,250,16
.byte	98,163,77,64,68,194,1
.byte	98,51,77,64,68,226,17
.byte	98,51,77,64,68,234,0
.byte	98,146,125,72,220,198
.byte	98,146,101,8,220,222
	vbroadcastf64x2	128(%rdi),%zmm30
	vpternlogq	$0x96,%zmm16,%zmm11,%zmm10
	vpternlogq	$0x96,%zmm12,%zmm14,%zmm24
	vpternlogq	$0x96,%zmm13,%zmm7,%zmm25
	vpternlogq	$0x96,%zmm15,%zmm10,%zmm26
.byte	98,146,125,72,220,199
.byte	98,146,101,8,220,223
	vbroadcastf64x2	144(%rdi),%zmm31
.byte	98,146,125,72,220,198
.byte	98,146,101,8,220,222
	vbroadcastf64x2	160(%rdi),%zmm30
.byte	98,146,125,72,220,199
.byte	98,146,101,8,220,223
.byte	98,146,125,72,221,198
.byte	98,146,101,8,221,222
	vpxorq	%zmm17,%zmm0,%zmm0
	vpxorq	%xmm19,%xmm3,%xmm3
	vextracti32x4	$0,%zmm3,%xmm11
	movq	%r9,%r10
	vmovdqu8	%zmm0,0(%r10,%rax,1)
	vmovdqu8	%xmm3,64(%r10,%rax,1){%k1}
	vmovdqu8	%zmm3,%zmm3{%k1}{z}
	vpshufb	%zmm29,%zmm0,%zmm17
	vpshufb	%xmm29,%xmm3,%xmm19
	vextracti32x4	$0,%zmm19,%xmm7
	leaq	80(%rsi),%r10
	subq	$16 * (5 - 1),%r8


	cmpq	$16,%r8
	jl	.L_small_initial_partial_block_wdqrtGpojajFBea





	subq	$16,%r8
	movl	$0,(%rdx)
	vmovdqu64	176(%r10),%zmm1
.byte	98,115,117,64,68,193,17
.byte	98,227,117,64,68,241,0
.byte	98,99,117,64,68,241,1
.byte	98,99,117,64,68,249,16
	vmovdqu64	240(%r10),%xmm1
.byte	98,243,101,0,68,225,1
.byte	98,243,101,0,68,233,16
.byte	98,243,101,0,68,193,17
.byte	98,243,101,0,68,217,0

	vpxorq	%zmm30,%zmm4,%zmm4
	vpternlogq	$0x96,%zmm31,%zmm26,%zmm5
	vpternlogq	$0x96,%zmm8,%zmm24,%zmm0
	vpternlogq	$0x96,%zmm22,%zmm25,%zmm3

	vpxorq	%zmm5,%zmm4,%zmm4
	vpsrldq	$8,%zmm4,%zmm30
	vpslldq	$8,%zmm4,%zmm31
	vpxorq	%zmm30,%zmm0,%zmm0
	vpxorq	%zmm31,%zmm3,%zmm3
	vextracti64x4	$1,%zmm0,%ymm30
	vpxorq	%ymm30,%ymm0,%ymm0
	vextracti32x4	$1,%ymm0,%xmm30
	vpxorq	%xmm30,%xmm0,%xmm0
	vextracti64x4	$1,%zmm3,%ymm31
	vpxorq	%ymm31,%ymm3,%ymm3
	vextracti32x4	$1,%ymm3,%xmm31
	vpxorq	%xmm31,%xmm3,%xmm3
	vmovdqa64	POLY2(%rip),%xmm1


.byte	98,243,117,8,68,227,1
	vpslldq	$8,%xmm4,%xmm4
	vpxorq	%xmm4,%xmm3,%xmm4


.byte	98,243,117,8,68,236,0
	vpsrldq	$4,%xmm5,%xmm5
.byte	98,115,117,8,68,244,16
	vpslldq	$4,%xmm14,%xmm14
	vpternlogq	$0x96,%xmm0,%xmm5,%xmm14

	jmp	.L_small_initial_compute_done_wdqrtGpojajFBea
.L_small_initial_partial_block_wdqrtGpojajFBea:








	movl	%r8d,(%rdx)
	vmovdqu64	%xmm11,16(%rsi)
	vmovdqu64	192(%r10),%zmm1
.byte	98,115,117,64,68,193,17
.byte	98,227,117,64,68,241,0
.byte	98,99,117,64,68,241,1
.byte	98,99,117,64,68,249,16

	vpxorq	%zmm26,%zmm30,%zmm30
	vpxorq	%zmm24,%zmm8,%zmm8
	vpxorq	%zmm25,%zmm22,%zmm22

	vpxorq	%zmm31,%zmm30,%zmm30
	vpsrldq	$8,%zmm30,%zmm4
	vpslldq	$8,%zmm30,%zmm5
	vpxorq	%zmm4,%zmm8,%zmm0
	vpxorq	%zmm5,%zmm22,%zmm3
	vextracti64x4	$1,%zmm0,%ymm30
	vpxorq	%ymm30,%ymm0,%ymm0
	vextracti32x4	$1,%ymm0,%xmm30
	vpxorq	%xmm30,%xmm0,%xmm0
	vextracti64x4	$1,%zmm3,%ymm31
	vpxorq	%ymm31,%ymm3,%ymm3
	vextracti32x4	$1,%ymm3,%xmm31
	vpxorq	%xmm31,%xmm3,%xmm3
	vmovdqa64	POLY2(%rip),%xmm1


.byte	98,243,117,8,68,227,1
	vpslldq	$8,%xmm4,%xmm4
	vpxorq	%xmm4,%xmm3,%xmm4


.byte	98,243,117,8,68,236,0
	vpsrldq	$4,%xmm5,%xmm5
.byte	98,115,117,8,68,244,16
	vpslldq	$4,%xmm14,%xmm14
	vpternlogq	$0x96,%xmm0,%xmm5,%xmm14

.L_small_initial_compute_done_wdqrtGpojajFBea:

	orq	%r8,%r8
	je	.L_after_reduction_wdqrtGpojajFBea
	vpxorq	%xmm7,%xmm14,%xmm14
.L_after_reduction_wdqrtGpojajFBea:
	jmp	.L_last_blocks_done_BdcphecxdpdFEsb
.L_last_num_blocks_is_6_BdcphecxdpdFEsb:
	leaq	byte64_len_to_mask_table(%rip),%r10
	movq	%r8,%r11
	subq	$64,%r11
	kmovq	(%r10,%r11,8),%k1
	cmpl	$250,%r15d
	jae	.L_16_blocks_overflow_qmgDCpkysmqcgnB
	vpaddd	%zmm28,%zmm2,%zmm0
	vpaddd	%ymm27,%ymm0,%ymm3
	jmp	.L_16_blocks_ok_qmgDCpkysmqcgnB

.L_16_blocks_overflow_qmgDCpkysmqcgnB:
	vpshufb	%zmm29,%zmm2,%zmm2
	vpaddd	ddq_add_1234(%rip),%zmm2,%zmm0
	vmovdqa64	ddq_add_4444(%rip),%zmm5
	vpaddd	%zmm5,%zmm0,%zmm3
	vpshufb	%zmm29,%zmm0,%zmm0
	vpshufb	%ymm29,%ymm3,%ymm3
.L_16_blocks_ok_qmgDCpkysmqcgnB:




	vbroadcastf64x2	0(%rdi),%zmm30
	vmovdqa64	1024(%rsp),%zmm8
	vmovdqu64	0(%rsp,%rbx,1),%zmm1
	vextracti32x4	$1,%zmm3,%xmm2
	vshufi64x2	$0,%zmm2,%zmm2,%zmm2


	vbroadcastf64x2	16(%rdi),%zmm31
	vmovdqu64	64(%rsp,%rbx,1),%zmm18
	vmovdqa64	1088(%rsp),%zmm22
	vpxorq	%zmm30,%zmm0,%zmm0
	vpxorq	%ymm30,%ymm3,%ymm3
	vbroadcastf64x2	32(%rdi),%zmm30


.byte	98,115,61,72,68,241,17
.byte	98,243,61,72,68,249,0
.byte	98,115,61,72,68,209,1
.byte	98,115,61,72,68,217,16
	vmovdqu64	128(%rsp,%rbx,1),%zmm1
	vmovdqa64	1152(%rsp),%zmm8
.byte	98,146,125,72,220,199
.byte	98,146,101,40,220,223
	vbroadcastf64x2	48(%rdi),%zmm31


.byte	98,51,77,64,68,250,16
.byte	98,163,77,64,68,194,1
.byte	98,51,77,64,68,226,17
.byte	98,51,77,64,68,234,0
	vmovdqu64	192(%rsp,%rbx,1),%zmm18
	vmovdqa64	1216(%rsp),%zmm22
.byte	98,146,125,72,220,198
.byte	98,146,101,40,220,222
	vbroadcastf64x2	64(%rdi),%zmm30


.byte	98,227,61,72,68,225,16
.byte	98,227,61,72,68,233,1
.byte	98,227,61,72,68,201,17
.byte	98,227,61,72,68,217,0
.byte	98,146,125,72,220,199
.byte	98,146,101,40,220,223
	vbroadcastf64x2	80(%rdi),%zmm31


	vpternlogq	$0x96,%zmm17,%zmm12,%zmm14
	vpternlogq	$0x96,%zmm19,%zmm13,%zmm7
	vpternlogq	$0x96,%zmm21,%zmm16,%zmm11
	vpternlogq	$0x96,%zmm20,%zmm15,%zmm10
.byte	98,146,125,72,220,198
.byte	98,146,101,40,220,222
	vbroadcastf64x2	96(%rdi),%zmm30
	vmovdqu8	0(%rcx,%rax,1),%zmm17
	vmovdqu8	64(%rcx,%rax,1),%ymm19{%k1}{z}
.byte	98,146,125,72,220,199
.byte	98,146,101,40,220,223
	vbroadcastf64x2	112(%rdi),%zmm31


.byte	98,51,77,64,68,250,16
.byte	98,163,77,64,68,194,1
.byte	98,51,77,64,68,226,17
.byte	98,51,77,64,68,234,0
.byte	98,146,125,72,220,198
.byte	98,146,101,40,220,222
	vbroadcastf64x2	128(%rdi),%zmm30
	vpternlogq	$0x96,%zmm16,%zmm11,%zmm10
	vpternlogq	$0x96,%zmm12,%zmm14,%zmm24
	vpternlogq	$0x96,%zmm13,%zmm7,%zmm25
	vpternlogq	$0x96,%zmm15,%zmm10,%zmm26
.byte	98,146,125,72,220,199
.byte	98,146,101,40,220,223
	vbroadcastf64x2	144(%rdi),%zmm31
.byte	98,146,125,72,220,198
.byte	98,146,101,40,220,222
	vbroadcastf64x2	160(%rdi),%zmm30
.byte	98,146,125,72,220,199
.byte	98,146,101,40,220,223
.byte	98,146,125,72,221,198
.byte	98,146,101,40,221,222
	vpxorq	%zmm17,%zmm0,%zmm0
	vpxorq	%ymm19,%ymm3,%ymm3
	vextracti32x4	$1,%zmm3,%xmm11
	movq	%r9,%r10
	vmovdqu8	%zmm0,0(%r10,%rax,1)
	vmovdqu8	%ymm3,64(%r10,%rax,1){%k1}
	vmovdqu8	%zmm3,%zmm3{%k1}{z}
	vpshufb	%zmm29,%zmm0,%zmm17
	vpshufb	%ymm29,%ymm3,%ymm19
	vextracti32x4	$1,%zmm19,%xmm7
	leaq	80(%rsi),%r10
	subq	$16 * (6 - 1),%r8


	cmpq	$16,%r8
	jl	.L_small_initial_partial_block_GvjnkpjsgDafsun





	subq	$16,%r8
	movl	$0,(%rdx)
	vmovdqu64	160(%r10),%zmm1
.byte	98,115,117,64,68,193,17
.byte	98,227,117,64,68,241,0
.byte	98,99,117,64,68,241,1
.byte	98,99,117,64,68,249,16
	vmovdqu64	224(%r10),%ymm1
.byte	98,243,101,32,68,225,1
.byte	98,243,101,32,68,233,16
.byte	98,243,101,32,68,193,17
.byte	98,243,101,32,68,217,0

	vpxorq	%zmm30,%zmm4,%zmm4
	vpternlogq	$0x96,%zmm31,%zmm26,%zmm5
	vpternlogq	$0x96,%zmm8,%zmm24,%zmm0
	vpternlogq	$0x96,%zmm22,%zmm25,%zmm3

	vpxorq	%zmm5,%zmm4,%zmm4
	vpsrldq	$8,%zmm4,%zmm30
	vpslldq	$8,%zmm4,%zmm31
	vpxorq	%zmm30,%zmm0,%zmm0
	vpxorq	%zmm31,%zmm3,%zmm3
	vextracti64x4	$1,%zmm0,%ymm30
	vpxorq	%ymm30,%ymm0,%ymm0
	vextracti32x4	$1,%ymm0,%xmm30
	vpxorq	%xmm30,%xmm0,%xmm0
	vextracti64x4	$1,%zmm3,%ymm31
	vpxorq	%ymm31,%ymm3,%ymm3
	vextracti32x4	$1,%ymm3,%xmm31
	vpxorq	%xmm31,%xmm3,%xmm3
	vmovdqa64	POLY2(%rip),%xmm1


.byte	98,243,117,8,68,227,1
	vpslldq	$8,%xmm4,%xmm4
	vpxorq	%xmm4,%xmm3,%xmm4


.byte	98,243,117,8,68,236,0
	vpsrldq	$4,%xmm5,%xmm5
.byte	98,115,117,8,68,244,16
	vpslldq	$4,%xmm14,%xmm14
	vpternlogq	$0x96,%xmm0,%xmm5,%xmm14

	jmp	.L_small_initial_compute_done_GvjnkpjsgDafsun
.L_small_initial_partial_block_GvjnkpjsgDafsun:








	movl	%r8d,(%rdx)
	vmovdqu64	%xmm11,16(%rsi)
	vmovdqu64	176(%r10),%zmm1
.byte	98,115,117,64,68,193,17
.byte	98,227,117,64,68,241,0
.byte	98,99,117,64,68,241,1
.byte	98,99,117,64,68,249,16
	vmovdqu64	240(%r10),%xmm1
.byte	98,243,101,0,68,225,1
.byte	98,243,101,0,68,233,16
.byte	98,243,101,0,68,193,17
.byte	98,243,101,0,68,217,0

	vpxorq	%zmm30,%zmm4,%zmm4
	vpternlogq	$0x96,%zmm31,%zmm26,%zmm5
	vpternlogq	$0x96,%zmm8,%zmm24,%zmm0
	vpternlogq	$0x96,%zmm22,%zmm25,%zmm3

	vpxorq	%zmm5,%zmm4,%zmm4
	vpsrldq	$8,%zmm4,%zmm30
	vpslldq	$8,%zmm4,%zmm31
	vpxorq	%zmm30,%zmm0,%zmm0
	vpxorq	%zmm31,%zmm3,%zmm3
	vextracti64x4	$1,%zmm0,%ymm30
	vpxorq	%ymm30,%ymm0,%ymm0
	vextracti32x4	$1,%ymm0,%xmm30
	vpxorq	%xmm30,%xmm0,%xmm0
	vextracti64x4	$1,%zmm3,%ymm31
	vpxorq	%ymm31,%ymm3,%ymm3
	vextracti32x4	$1,%ymm3,%xmm31
	vpxorq	%xmm31,%xmm3,%xmm3
	vmovdqa64	POLY2(%rip),%xmm1


.byte	98,243,117,8,68,227,1
	vpslldq	$8,%xmm4,%xmm4
	vpxorq	%xmm4,%xmm3,%xmm4


.byte	98,243,117,8,68,236,0
	vpsrldq	$4,%xmm5,%xmm5
.byte	98,115,117,8,68,244,16
	vpslldq	$4,%xmm14,%xmm14
	vpternlogq	$0x96,%xmm0,%xmm5,%xmm14

.L_small_initial_compute_done_GvjnkpjsgDafsun:

	orq	%r8,%r8
	je	.L_after_reduction_GvjnkpjsgDafsun
	vpxorq	%xmm7,%xmm14,%xmm14
.L_after_reduction_GvjnkpjsgDafsun:
	jmp	.L_last_blocks_done_BdcphecxdpdFEsb
.L_last_num_blocks_is_7_BdcphecxdpdFEsb:
	leaq	byte64_len_to_mask_table(%rip),%r10
	movq	%r8,%r11
	subq	$64,%r11
	kmovq	(%r10,%r11,8),%k1
	cmpl	$249,%r15d
	jae	.L_16_blocks_overflow_jaFyvjvpAfzmwyg
	vpaddd	%zmm28,%zmm2,%zmm0
	vpaddd	%zmm27,%zmm0,%zmm3
	jmp	.L_16_blocks_ok_jaFyvjvpAfzmwyg

.L_16_blocks_overflow_jaFyvjvpAfzmwyg:
	vpshufb	%zmm29,%zmm2,%zmm2
	vpaddd	ddq_add_1234(%rip),%zmm2,%zmm0
	vmovdqa64	ddq_add_4444(%rip),%zmm5
	vpaddd	%zmm5,%zmm0,%zmm3
	vpshufb	%zmm29,%zmm0,%zmm0
	vpshufb	%zmm29,%zmm3,%zmm3
.L_16_blocks_ok_jaFyvjvpAfzmwyg:




	vbroadcastf64x2	0(%rdi),%zmm30
	vmovdqa64	1024(%rsp),%zmm8
	vmovdqu64	0(%rsp,%rbx,1),%zmm1
	vextracti32x4	$2,%zmm3,%xmm2
	vshufi64x2	$0,%zmm2,%zmm2,%zmm2


	vbroadcastf64x2	16(%rdi),%zmm31
	vmovdqu64	64(%rsp,%rbx,1),%zmm18
	vmovdqa64	1088(%rsp),%zmm22
	vpxorq	%zmm30,%zmm0,%zmm0
	vpxorq	%zmm30,%zmm3,%zmm3
	vbroadcastf64x2	32(%rdi),%zmm30


.byte	98,115,61,72,68,241,17
.byte	98,243,61,72,68,249,0
.byte	98,115,61,72,68,209,1
.byte	98,115,61,72,68,217,16
	vmovdqu64	128(%rsp,%rbx,1),%zmm1
	vmovdqa64	1152(%rsp),%zmm8
.byte	98,146,125,72,220,199
.byte	98,146,101,72,220,223
	vbroadcastf64x2	48(%rdi),%zmm31


.byte	98,51,77,64,68,250,16
.byte	98,163,77,64,68,194,1
.byte	98,51,77,64,68,226,17
.byte	98,51,77,64,68,234,0
	vmovdqu64	192(%rsp,%rbx,1),%zmm18
	vmovdqa64	1216(%rsp),%zmm22
.byte	98,146,125,72,220,198
.byte	98,146,101,72,220,222
	vbroadcastf64x2	64(%rdi),%zmm30


.byte	98,227,61,72,68,225,16
.byte	98,227,61,72,68,233,1
.byte	98,227,61,72,68,201,17
.byte	98,227,61,72,68,217,0
.byte	98,146,125,72,220,199
.byte	98,146,101,72,220,223
	vbroadcastf64x2	80(%rdi),%zmm31


	vpternlogq	$0x96,%zmm17,%zmm12,%zmm14
	vpternlogq	$0x96,%zmm19,%zmm13,%zmm7
	vpternlogq	$0x96,%zmm21,%zmm16,%zmm11
	vpternlogq	$0x96,%zmm20,%zmm15,%zmm10
.byte	98,146,125,72,220,198
.byte	98,146,101,72,220,222
	vbroadcastf64x2	96(%rdi),%zmm30
	vmovdqu8	0(%rcx,%rax,1),%zmm17
	vmovdqu8	64(%rcx,%rax,1),%zmm19{%k1}{z}
.byte	98,146,125,72,220,199
.byte	98,146,101,72,220,223
	vbroadcastf64x2	112(%rdi),%zmm31


.byte	98,51,77,64,68,250,16
.byte	98,163,77,64,68,194,1
.byte	98,51,77,64,68,226,17
.byte	98,51,77,64,68,234,0
.byte	98,146,125,72,220,198
.byte	98,146,101,72,220,222
	vbroadcastf64x2	128(%rdi),%zmm30
	vpternlogq	$0x96,%zmm16,%zmm11,%zmm10
	vpternlogq	$0x96,%zmm12,%zmm14,%zmm24
	vpternlogq	$0x96,%zmm13,%zmm7,%zmm25
	vpternlogq	$0x96,%zmm15,%zmm10,%zmm26
.byte	98,146,125,72,220,199
.byte	98,146,101,72,220,223
	vbroadcastf64x2	144(%rdi),%zmm31
.byte	98,146,125,72,220,198
.byte	98,146,101,72,220,222
	vbroadcastf64x2	160(%rdi),%zmm30
.byte	98,146,125,72,220,199
.byte	98,146,101,72,220,223
.byte	98,146,125,72,221,198
.byte	98,146,101,72,221,222
	vpxorq	%zmm17,%zmm0,%zmm0
	vpxorq	%zmm19,%zmm3,%zmm3
	vextracti32x4	$2,%zmm3,%xmm11
	movq	%r9,%r10
	vmovdqu8	%zmm0,0(%r10,%rax,1)
	vmovdqu8	%zmm3,64(%r10,%rax,1){%k1}
	vmovdqu8	%zmm3,%zmm3{%k1}{z}
	vpshufb	%zmm29,%zmm0,%zmm17
	vpshufb	%zmm29,%zmm3,%zmm19
	vextracti32x4	$2,%zmm19,%xmm7
	leaq	80(%rsi),%r10
	subq	$16 * (7 - 1),%r8


	cmpq	$16,%r8
	jl	.L_small_initial_partial_block_iuyAGoBcDewEeiy





	subq	$16,%r8
	movl	$0,(%rdx)
	vmovdqu64	144(%r10),%zmm1
.byte	98,115,117,64,68,193,17
.byte	98,227,117,64,68,241,0
.byte	98,99,117,64,68,241,1
.byte	98,99,117,64,68,249,16
	vmovdqu64	208(%r10),%ymm1
	vinserti64x2	$2,240(%r10),%zmm1,%zmm1
.byte	98,243,101,64,68,225,1
.byte	98,243,101,64,68,233,16
.byte	98,243,101,64,68,193,17
.byte	98,243,101,64,68,217,0

	vpxorq	%zmm30,%zmm4,%zmm4
	vpternlogq	$0x96,%zmm31,%zmm26,%zmm5
	vpternlogq	$0x96,%zmm8,%zmm24,%zmm0
	vpternlogq	$0x96,%zmm22,%zmm25,%zmm3

	vpxorq	%zmm5,%zmm4,%zmm4
	vpsrldq	$8,%zmm4,%zmm30
	vpslldq	$8,%zmm4,%zmm31
	vpxorq	%zmm30,%zmm0,%zmm0
	vpxorq	%zmm31,%zmm3,%zmm3
	vextracti64x4	$1,%zmm0,%ymm30
	vpxorq	%ymm30,%ymm0,%ymm0
	vextracti32x4	$1,%ymm0,%xmm30
	vpxorq	%xmm30,%xmm0,%xmm0
	vextracti64x4	$1,%zmm3,%ymm31
	vpxorq	%ymm31,%ymm3,%ymm3
	vextracti32x4	$1,%ymm3,%xmm31
	vpxorq	%xmm31,%xmm3,%xmm3
	vmovdqa64	POLY2(%rip),%xmm1


.byte	98,243,117,8,68,227,1
	vpslldq	$8,%xmm4,%xmm4
	vpxorq	%xmm4,%xmm3,%xmm4


.byte	98,243,117,8,68,236,0
	vpsrldq	$4,%xmm5,%xmm5
.byte	98,115,117,8,68,244,16
	vpslldq	$4,%xmm14,%xmm14
	vpternlogq	$0x96,%xmm0,%xmm5,%xmm14

	jmp	.L_small_initial_compute_done_iuyAGoBcDewEeiy
.L_small_initial_partial_block_iuyAGoBcDewEeiy:








	movl	%r8d,(%rdx)
	vmovdqu64	%xmm11,16(%rsi)
	vmovdqu64	160(%r10),%zmm1
.byte	98,115,117,64,68,193,17
.byte	98,227,117,64,68,241,0
.byte	98,99,117,64,68,241,1
.byte	98,99,117,64,68,249,16
	vmovdqu64	224(%r10),%ymm1
.byte	98,243,101,32,68,225,1
.byte	98,243,101,32,68,233,16
.byte	98,243,101,32,68,193,17
.byte	98,243,101,32,68,217,0

	vpxorq	%zmm30,%zmm4,%zmm4
	vpternlogq	$0x96,%zmm31,%zmm26,%zmm5
	vpternlogq	$0x96,%zmm8,%zmm24,%zmm0
	vpternlogq	$0x96,%zmm22,%zmm25,%zmm3

	vpxorq	%zmm5,%zmm4,%zmm4
	vpsrldq	$8,%zmm4,%zmm30
	vpslldq	$8,%zmm4,%zmm31
	vpxorq	%zmm30,%zmm0,%zmm0
	vpxorq	%zmm31,%zmm3,%zmm3
	vextracti64x4	$1,%zmm0,%ymm30
	vpxorq	%ymm30,%ymm0,%ymm0
	vextracti32x4	$1,%ymm0,%xmm30
	vpxorq	%xmm30,%xmm0,%xmm0
	vextracti64x4	$1,%zmm3,%ymm31
	vpxorq	%ymm31,%ymm3,%ymm3
	vextracti32x4	$1,%ymm3,%xmm31
	vpxorq	%xmm31,%xmm3,%xmm3
	vmovdqa64	POLY2(%rip),%xmm1


.byte	98,243,117,8,68,227,1
	vpslldq	$8,%xmm4,%xmm4
	vpxorq	%xmm4,%xmm3,%xmm4


.byte	98,243,117,8,68,236,0
	vpsrldq	$4,%xmm5,%xmm5
.byte	98,115,117,8,68,244,16
	vpslldq	$4,%xmm14,%xmm14
	vpternlogq	$0x96,%xmm0,%xmm5,%xmm14

.L_small_initial_compute_done_iuyAGoBcDewEeiy:

	orq	%r8,%r8
	je	.L_after_reduction_iuyAGoBcDewEeiy
	vpxorq	%xmm7,%xmm14,%xmm14
.L_after_reduction_iuyAGoBcDewEeiy:
	jmp	.L_last_blocks_done_BdcphecxdpdFEsb
.L_last_num_blocks_is_8_BdcphecxdpdFEsb:
	leaq	byte64_len_to_mask_table(%rip),%r10
	movq	%r8,%r11
	subq	$64,%r11
	kmovq	(%r10,%r11,8),%k1
	cmpl	$248,%r15d
	jae	.L_16_blocks_overflow_FbwsrgpDGDmccid
	vpaddd	%zmm28,%zmm2,%zmm0
	vpaddd	%zmm27,%zmm0,%zmm3
	jmp	.L_16_blocks_ok_FbwsrgpDGDmccid

.L_16_blocks_overflow_FbwsrgpDGDmccid:
	vpshufb	%zmm29,%zmm2,%zmm2
	vpaddd	ddq_add_1234(%rip),%zmm2,%zmm0
	vmovdqa64	ddq_add_4444(%rip),%zmm5
	vpaddd	%zmm5,%zmm0,%zmm3
	vpshufb	%zmm29,%zmm0,%zmm0
	vpshufb	%zmm29,%zmm3,%zmm3
.L_16_blocks_ok_FbwsrgpDGDmccid:




	vbroadcastf64x2	0(%rdi),%zmm30
	vmovdqa64	1024(%rsp),%zmm8
	vmovdqu64	0(%rsp,%rbx,1),%zmm1
	vextracti32x4	$3,%zmm3,%xmm2
	vshufi64x2	$0,%zmm2,%zmm2,%zmm2


	vbroadcastf64x2	16(%rdi),%zmm31
	vmovdqu64	64(%rsp,%rbx,1),%zmm18
	vmovdqa64	1088(%rsp),%zmm22
	vpxorq	%zmm30,%zmm0,%zmm0
	vpxorq	%zmm30,%zmm3,%zmm3
	vbroadcastf64x2	32(%rdi),%zmm30


.byte	98,115,61,72,68,241,17
.byte	98,243,61,72,68,249,0
.byte	98,115,61,72,68,209,1
.byte	98,115,61,72,68,217,16
	vmovdqu64	128(%rsp,%rbx,1),%zmm1
	vmovdqa64	1152(%rsp),%zmm8
.byte	98,146,125,72,220,199
.byte	98,146,101,72,220,223
	vbroadcastf64x2	48(%rdi),%zmm31


.byte	98,51,77,64,68,250,16
.byte	98,163,77,64,68,194,1
.byte	98,51,77,64,68,226,17
.byte	98,51,77,64,68,234,0
	vmovdqu64	192(%rsp,%rbx,1),%zmm18
	vmovdqa64	1216(%rsp),%zmm22
.byte	98,146,125,72,220,198
.byte	98,146,101,72,220,222
	vbroadcastf64x2	64(%rdi),%zmm30


.byte	98,227,61,72,68,225,16
.byte	98,227,61,72,68,233,1
.byte	98,227,61,72,68,201,17
.byte	98,227,61,72,68,217,0
.byte	98,146,125,72,220,199
.byte	98,146,101,72,220,223
	vbroadcastf64x2	80(%rdi),%zmm31


	vpternlogq	$0x96,%zmm17,%zmm12,%zmm14
	vpternlogq	$0x96,%zmm19,%zmm13,%zmm7
	vpternlogq	$0x96,%zmm21,%zmm16,%zmm11
	vpternlogq	$0x96,%zmm20,%zmm15,%zmm10
.byte	98,146,125,72,220,198
.byte	98,146,101,72,220,222
	vbroadcastf64x2	96(%rdi),%zmm30
	vmovdqu8	0(%rcx,%rax,1),%zmm17
	vmovdqu8	64(%rcx,%rax,1),%zmm19{%k1}{z}
.byte	98,146,125,72,220,199
.byte	98,146,101,72,220,223
	vbroadcastf64x2	112(%rdi),%zmm31


.byte	98,51,77,64,68,250,16
.byte	98,163,77,64,68,194,1
.byte	98,51,77,64,68,226,17
.byte	98,51,77,64,68,234,0
.byte	98,146,125,72,220,198
.byte	98,146,101,72,220,222
	vbroadcastf64x2	128(%rdi),%zmm30
	vpternlogq	$0x96,%zmm16,%zmm11,%zmm10
	vpternlogq	$0x96,%zmm12,%zmm14,%zmm24
	vpternlogq	$0x96,%zmm13,%zmm7,%zmm25
	vpternlogq	$0x96,%zmm15,%zmm10,%zmm26
.byte	98,146,125,72,220,199
.byte	98,146,101,72,220,223
	vbroadcastf64x2	144(%rdi),%zmm31
.byte	98,146,125,72,220,198
.byte	98,146,101,72,220,222
	vbroadcastf64x2	160(%rdi),%zmm30
.byte	98,146,125,72,220,199
.byte	98,146,101,72,220,223
.byte	98,146,125,72,221,198
.byte	98,146,101,72,221,222
	vpxorq	%zmm17,%zmm0,%zmm0
	vpxorq	%zmm19,%zmm3,%zmm3
	vextracti32x4	$3,%zmm3,%xmm11
	movq	%r9,%r10
	vmovdqu8	%zmm0,0(%r10,%rax,1)
	vmovdqu8	%zmm3,64(%r10,%rax,1){%k1}
	vmovdqu8	%zmm3,%zmm3{%k1}{z}
	vpshufb	%zmm29,%zmm0,%zmm17
	vpshufb	%zmm29,%zmm3,%zmm19
	vextracti32x4	$3,%zmm19,%xmm7
	leaq	80(%rsi),%r10
	subq	$16 * (8 - 1),%r8


	cmpq	$16,%r8
	jl	.L_small_initial_partial_block_lABtdkpvoGeFpzp





	subq	$16,%r8
	movl	$0,(%rdx)
	vmovdqu64	128(%r10),%zmm1
.byte	98,243,117,64,68,193,17
.byte	98,243,117,64,68,217,0
.byte	98,243,117,64,68,225,1
.byte	98,243,117,64,68,233,16
	vmovdqu64	192(%r10),%zmm1
.byte	98,115,101,64,68,193,17
.byte	98,227,101,64,68,241,0
.byte	98,99,101,64,68,241,1
.byte	98,99,101,64,68,249,16
	vpxorq	%zmm8,%zmm0,%zmm8
	vpxorq	%zmm22,%zmm3,%zmm22
	vpxorq	%zmm30,%zmm4,%zmm30
	vpxorq	%zmm31,%zmm5,%zmm31

	vpxorq	%zmm26,%zmm30,%zmm30
	vpxorq	%zmm24,%zmm8,%zmm8
	vpxorq	%zmm25,%zmm22,%zmm22

	vpxorq	%zmm31,%zmm30,%zmm30
	vpsrldq	$8,%zmm30,%zmm4
	vpslldq	$8,%zmm30,%zmm5
	vpxorq	%zmm4,%zmm8,%zmm0
	vpxorq	%zmm5,%zmm22,%zmm3
	vextracti64x4	$1,%zmm0,%ymm30
	vpxorq	%ymm30,%ymm0,%ymm0
	vextracti32x4	$1,%ymm0,%xmm30
	vpxorq	%xmm30,%xmm0,%xmm0
	vextracti64x4	$1,%zmm3,%ymm31
	vpxorq	%ymm31,%ymm3,%ymm3
	vextracti32x4	$1,%ymm3,%xmm31
	vpxorq	%xmm31,%xmm3,%xmm3
	vmovdqa64	POLY2(%rip),%xmm1


.byte	98,243,117,8,68,227,1
	vpslldq	$8,%xmm4,%xmm4
	vpxorq	%xmm4,%xmm3,%xmm4


.byte	98,243,117,8,68,236,0
	vpsrldq	$4,%xmm5,%xmm5
.byte	98,115,117,8,68,244,16
	vpslldq	$4,%xmm14,%xmm14
	vpternlogq	$0x96,%xmm0,%xmm5,%xmm14

	jmp	.L_small_initial_compute_done_lABtdkpvoGeFpzp
.L_small_initial_partial_block_lABtdkpvoGeFpzp:








	movl	%r8d,(%rdx)
	vmovdqu64	%xmm11,16(%rsi)
	vmovdqu64	144(%r10),%zmm1
.byte	98,115,117,64,68,193,17
.byte	98,227,117,64,68,241,0
.byte	98,99,117,64,68,241,1
.byte	98,99,117,64,68,249,16
	vmovdqu64	208(%r10),%ymm1
	vinserti64x2	$2,240(%r10),%zmm1,%zmm1
.byte	98,243,101,64,68,225,1
.byte	98,243,101,64,68,233,16
.byte	98,243,101,64,68,193,17
.byte	98,243,101,64,68,217,0

	vpxorq	%zmm30,%zmm4,%zmm4
	vpternlogq	$0x96,%zmm31,%zmm26,%zmm5
	vpternlogq	$0x96,%zmm8,%zmm24,%zmm0
	vpternlogq	$0x96,%zmm22,%zmm25,%zmm3

	vpxorq	%zmm5,%zmm4,%zmm4
	vpsrldq	$8,%zmm4,%zmm30
	vpslldq	$8,%zmm4,%zmm31
	vpxorq	%zmm30,%zmm0,%zmm0
	vpxorq	%zmm31,%zmm3,%zmm3
	vextracti64x4	$1,%zmm0,%ymm30
	vpxorq	%ymm30,%ymm0,%ymm0
	vextracti32x4	$1,%ymm0,%xmm30
	vpxorq	%xmm30,%xmm0,%xmm0
	vextracti64x4	$1,%zmm3,%ymm31
	vpxorq	%ymm31,%ymm3,%ymm3
	vextracti32x4	$1,%ymm3,%xmm31
	vpxorq	%xmm31,%xmm3,%xmm3
	vmovdqa64	POLY2(%rip),%xmm1


.byte	98,243,117,8,68,227,1
	vpslldq	$8,%xmm4,%xmm4
	vpxorq	%xmm4,%xmm3,%xmm4


.byte	98,243,117,8,68,236,0
	vpsrldq	$4,%xmm5,%xmm5
.byte	98,115,117,8,68,244,16
	vpslldq	$4,%xmm14,%xmm14
	vpternlogq	$0x96,%xmm0,%xmm5,%xmm14

.L_small_initial_compute_done_lABtdkpvoGeFpzp:

	orq	%r8,%r8
	je	.L_after_reduction_lABtdkpvoGeFpzp
	vpxorq	%xmm7,%xmm14,%xmm14
.L_after_reduction_lABtdkpvoGeFpzp:
	jmp	.L_last_blocks_done_BdcphecxdpdFEsb
.L_last_num_blocks_is_9_BdcphecxdpdFEsb:
	leaq	byte64_len_to_mask_table(%rip),%r10
	movq	%r8,%r11
	subq	$128,%r11
	kmovq	(%r10,%r11,8),%k1
	cmpl	$247,%r15d
	jae	.L_16_blocks_overflow_dtxuExFwmpsGEiG
	vpaddd	%zmm28,%zmm2,%zmm0
	vpaddd	%zmm27,%zmm0,%zmm3
	vpaddd	%xmm27,%xmm3,%xmm4
	jmp	.L_16_blocks_ok_dtxuExFwmpsGEiG

.L_16_blocks_overflow_dtxuExFwmpsGEiG:
	vpshufb	%zmm29,%zmm2,%zmm2
	vpaddd	ddq_add_1234(%rip),%zmm2,%zmm0
	vmovdqa64	ddq_add_4444(%rip),%zmm5
	vpaddd	%zmm5,%zmm0,%zmm3
	vpaddd	%zmm5,%zmm3,%zmm4
	vpshufb	%zmm29,%zmm0,%zmm0
	vpshufb	%zmm29,%zmm3,%zmm3
	vpshufb	%xmm29,%xmm4,%xmm4
.L_16_blocks_ok_dtxuExFwmpsGEiG:




	vbroadcastf64x2	0(%rdi),%zmm30
	vmovdqa64	1024(%rsp),%zmm8
	vmovdqu64	0(%rsp,%rbx,1),%zmm1
	vextracti32x4	$0,%zmm4,%xmm2
	vshufi64x2	$0,%zmm2,%zmm2,%zmm2


	vbroadcastf64x2	16(%rdi),%zmm31
	vmovdqu64	64(%rsp,%rbx,1),%zmm18
	vmovdqa64	1088(%rsp),%zmm22
	vpxorq	%zmm30,%zmm0,%zmm0
	vpxorq	%zmm30,%zmm3,%zmm3
	vpxorq	%xmm30,%xmm4,%xmm4
	vbroadcastf64x2	32(%rdi),%zmm30


.byte	98,115,61,72,68,241,17
.byte	98,243,61,72,68,249,0
.byte	98,115,61,72,68,209,1
.byte	98,115,61,72,68,217,16
	vmovdqu64	128(%rsp,%rbx,1),%zmm1
	vmovdqa64	1152(%rsp),%zmm8
.byte	98,146,125,72,220,199
.byte	98,146,101,72,220,223
.byte	98,146,93,8,220,231
	vbroadcastf64x2	48(%rdi),%zmm31


.byte	98,51,77,64,68,250,16
.byte	98,163,77,64,68,194,1
.byte	98,51,77,64,68,226,17
.byte	98,51,77,64,68,234,0
	vmovdqu64	192(%rsp,%rbx,1),%zmm18
	vmovdqa64	1216(%rsp),%zmm22
.byte	98,146,125,72,220,198
.byte	98,146,101,72,220,222
.byte	98,146,93,8,220,230
	vbroadcastf64x2	64(%rdi),%zmm30


.byte	98,227,61,72,68,225,16
.byte	98,227,61,72,68,233,1
.byte	98,227,61,72,68,201,17
.byte	98,227,61,72,68,217,0
.byte	98,146,125,72,220,199
.byte	98,146,101,72,220,223
.byte	98,146,93,8,220,231
	vbroadcastf64x2	80(%rdi),%zmm31


	vpternlogq	$0x96,%zmm17,%zmm12,%zmm14
	vpternlogq	$0x96,%zmm19,%zmm13,%zmm7
	vpternlogq	$0x96,%zmm21,%zmm16,%zmm11
	vpternlogq	$0x96,%zmm20,%zmm15,%zmm10
.byte	98,146,125,72,220,198
.byte	98,146,101,72,220,222
.byte	98,146,93,8,220,230
	vbroadcastf64x2	96(%rdi),%zmm30
	vmovdqu8	0(%rcx,%rax,1),%zmm17
	vmovdqu8	64(%rcx,%rax,1),%zmm19
	vmovdqu8	128(%rcx,%rax,1),%xmm20{%k1}{z}
.byte	98,146,125,72,220,199
.byte	98,146,101,72,220,223
.byte	98,146,93,8,220,231
	vbroadcastf64x2	112(%rdi),%zmm31


.byte	98,51,77,64,68,250,16
.byte	98,163,77,64,68,194,1
.byte	98,51,77,64,68,226,17
.byte	98,51,77,64,68,234,0
.byte	98,146,125,72,220,198
.byte	98,146,101,72,220,222
.byte	98,146,93,8,220,230
	vbroadcastf64x2	128(%rdi),%zmm30
	vpternlogq	$0x96,%zmm16,%zmm11,%zmm10
	vpternlogq	$0x96,%zmm12,%zmm14,%zmm24
	vpternlogq	$0x96,%zmm13,%zmm7,%zmm25
	vpternlogq	$0x96,%zmm15,%zmm10,%zmm26
.byte	98,146,125,72,220,199
.byte	98,146,101,72,220,223
.byte	98,146,93,8,220,231
	vbroadcastf64x2	144(%rdi),%zmm31
.byte	98,146,125,72,220,198
.byte	98,146,101,72,220,222
.byte	98,146,93,8,220,230
	vbroadcastf64x2	160(%rdi),%zmm30
.byte	98,146,125,72,220,199
.byte	98,146,101,72,220,223
.byte	98,146,93,8,220,231
.byte	98,146,125,72,221,198
.byte	98,146,101,72,221,222
.byte	98,146,93,8,221,230
	vpxorq	%zmm17,%zmm0,%zmm0
	vpxorq	%zmm19,%zmm3,%zmm3
	vpxorq	%xmm20,%xmm4,%xmm4
	vextracti32x4	$0,%zmm4,%xmm11
	movq	%r9,%r10
	vmovdqu8	%zmm0,0(%r10,%rax,1)
	vmovdqu8	%zmm3,64(%r10,%rax,1)
	vmovdqu8	%xmm4,128(%r10,%rax,1){%k1}
	vmovdqu8	%zmm4,%zmm4{%k1}{z}
	vpshufb	%zmm29,%zmm0,%zmm17
	vpshufb	%zmm29,%zmm3,%zmm19
	vpshufb	%xmm29,%xmm4,%xmm20
	vextracti32x4	$0,%zmm20,%xmm7
	leaq	80(%rsi),%r10
	subq	$16 * (9 - 1),%r8


	cmpq	$16,%r8
	jl	.L_small_initial_partial_block_vkADoeFsfDwilnv





	subq	$16,%r8
	movl	$0,(%rdx)
	vmovdqu64	112(%r10),%zmm1
.byte	98,243,117,64,68,193,17
.byte	98,243,117,64,68,217,0
.byte	98,243,117,64,68,225,1
.byte	98,243,117,64,68,233,16
	vmovdqu64	176(%r10),%zmm1
.byte	98,115,101,64,68,193,17
.byte	98,227,101,64,68,241,0
.byte	98,99,101,64,68,241,1
.byte	98,99,101,64,68,249,16
	vpxorq	%zmm8,%zmm0,%zmm8
	vpxorq	%zmm22,%zmm3,%zmm22
	vpxorq	%zmm30,%zmm4,%zmm30
	vpxorq	%zmm31,%zmm5,%zmm31
	vmovdqu64	240(%r10),%xmm1
.byte	98,243,93,0,68,225,1
.byte	98,243,93,0,68,233,16
.byte	98,243,93,0,68,193,17
.byte	98,243,93,0,68,217,0

	vpxorq	%zmm30,%zmm4,%zmm4
	vpternlogq	$0x96,%zmm31,%zmm26,%zmm5
	vpternlogq	$0x96,%zmm8,%zmm24,%zmm0
	vpternlogq	$0x96,%zmm22,%zmm25,%zmm3

	vpxorq	%zmm5,%zmm4,%zmm4
	vpsrldq	$8,%zmm4,%zmm30
	vpslldq	$8,%zmm4,%zmm31
	vpxorq	%zmm30,%zmm0,%zmm0
	vpxorq	%zmm31,%zmm3,%zmm3
	vextracti64x4	$1,%zmm0,%ymm30
	vpxorq	%ymm30,%ymm0,%ymm0
	vextracti32x4	$1,%ymm0,%xmm30
	vpxorq	%xmm30,%xmm0,%xmm0
	vextracti64x4	$1,%zmm3,%ymm31
	vpxorq	%ymm31,%ymm3,%ymm3
	vextracti32x4	$1,%ymm3,%xmm31
	vpxorq	%xmm31,%xmm3,%xmm3
	vmovdqa64	POLY2(%rip),%xmm1


.byte	98,243,117,8,68,227,1
	vpslldq	$8,%xmm4,%xmm4
	vpxorq	%xmm4,%xmm3,%xmm4


.byte	98,243,117,8,68,236,0
	vpsrldq	$4,%xmm5,%xmm5
.byte	98,115,117,8,68,244,16
	vpslldq	$4,%xmm14,%xmm14
	vpternlogq	$0x96,%xmm0,%xmm5,%xmm14

	jmp	.L_small_initial_compute_done_vkADoeFsfDwilnv
.L_small_initial_partial_block_vkADoeFsfDwilnv:








	movl	%r8d,(%rdx)
	vmovdqu64	%xmm11,16(%rsi)
	vmovdqu64	128(%r10),%zmm1
.byte	98,243,117,64,68,193,17
.byte	98,243,117,64,68,217,0
.byte	98,243,117,64,68,225,1
.byte	98,243,117,64,68,233,16
	vmovdqu64	192(%r10),%zmm1
.byte	98,115,101,64,68,193,17
.byte	98,227,101,64,68,241,0
.byte	98,99,101,64,68,241,1
.byte	98,99,101,64,68,249,16
	vpxorq	%zmm8,%zmm0,%zmm8
	vpxorq	%zmm22,%zmm3,%zmm22
	vpxorq	%zmm30,%zmm4,%zmm30
	vpxorq	%zmm31,%zmm5,%zmm31

	vpxorq	%zmm26,%zmm30,%zmm30
	vpxorq	%zmm24,%zmm8,%zmm8
	vpxorq	%zmm25,%zmm22,%zmm22

	vpxorq	%zmm31,%zmm30,%zmm30
	vpsrldq	$8,%zmm30,%zmm4
	vpslldq	$8,%zmm30,%zmm5
	vpxorq	%zmm4,%zmm8,%zmm0
	vpxorq	%zmm5,%zmm22,%zmm3
	vextracti64x4	$1,%zmm0,%ymm30
	vpxorq	%ymm30,%ymm0,%ymm0
	vextracti32x4	$1,%ymm0,%xmm30
	vpxorq	%xmm30,%xmm0,%xmm0
	vextracti64x4	$1,%zmm3,%ymm31
	vpxorq	%ymm31,%ymm3,%ymm3
	vextracti32x4	$1,%ymm3,%xmm31
	vpxorq	%xmm31,%xmm3,%xmm3
	vmovdqa64	POLY2(%rip),%xmm1


.byte	98,243,117,8,68,227,1
	vpslldq	$8,%xmm4,%xmm4
	vpxorq	%xmm4,%xmm3,%xmm4


.byte	98,243,117,8,68,236,0
	vpsrldq	$4,%xmm5,%xmm5
.byte	98,115,117,8,68,244,16
	vpslldq	$4,%xmm14,%xmm14
	vpternlogq	$0x96,%xmm0,%xmm5,%xmm14

.L_small_initial_compute_done_vkADoeFsfDwilnv:

	orq	%r8,%r8
	je	.L_after_reduction_vkADoeFsfDwilnv
	vpxorq	%xmm7,%xmm14,%xmm14
.L_after_reduction_vkADoeFsfDwilnv:
	jmp	.L_last_blocks_done_BdcphecxdpdFEsb
.L_last_num_blocks_is_10_BdcphecxdpdFEsb:
	leaq	byte64_len_to_mask_table(%rip),%r10
	movq	%r8,%r11
	subq	$128,%r11
	kmovq	(%r10,%r11,8),%k1
	cmpl	$246,%r15d
	jae	.L_16_blocks_overflow_damgrhyFxffganz
	vpaddd	%zmm28,%zmm2,%zmm0
	vpaddd	%zmm27,%zmm0,%zmm3
	vpaddd	%ymm27,%ymm3,%ymm4
	jmp	.L_16_blocks_ok_damgrhyFxffganz

.L_16_blocks_overflow_damgrhyFxffganz:
	vpshufb	%zmm29,%zmm2,%zmm2
	vpaddd	ddq_add_1234(%rip),%zmm2,%zmm0
	vmovdqa64	ddq_add_4444(%rip),%zmm5
	vpaddd	%zmm5,%zmm0,%zmm3
	vpaddd	%zmm5,%zmm3,%zmm4
	vpshufb	%zmm29,%zmm0,%zmm0
	vpshufb	%zmm29,%zmm3,%zmm3
	vpshufb	%ymm29,%ymm4,%ymm4
.L_16_blocks_ok_damgrhyFxffganz:




	vbroadcastf64x2	0(%rdi),%zmm30
	vmovdqa64	1024(%rsp),%zmm8
	vmovdqu64	0(%rsp,%rbx,1),%zmm1
	vextracti32x4	$1,%zmm4,%xmm2
	vshufi64x2	$0,%zmm2,%zmm2,%zmm2


	vbroadcastf64x2	16(%rdi),%zmm31
	vmovdqu64	64(%rsp,%rbx,1),%zmm18
	vmovdqa64	1088(%rsp),%zmm22
	vpxorq	%zmm30,%zmm0,%zmm0
	vpxorq	%zmm30,%zmm3,%zmm3
	vpxorq	%ymm30,%ymm4,%ymm4
	vbroadcastf64x2	32(%rdi),%zmm30


.byte	98,115,61,72,68,241,17
.byte	98,243,61,72,68,249,0
.byte	98,115,61,72,68,209,1
.byte	98,115,61,72,68,217,16
	vmovdqu64	128(%rsp,%rbx,1),%zmm1
	vmovdqa64	1152(%rsp),%zmm8
.byte	98,146,125,72,220,199
.byte	98,146,101,72,220,223
.byte	98,146,93,40,220,231
	vbroadcastf64x2	48(%rdi),%zmm31


.byte	98,51,77,64,68,250,16
.byte	98,163,77,64,68,194,1
.byte	98,51,77,64,68,226,17
.byte	98,51,77,64,68,234,0
	vmovdqu64	192(%rsp,%rbx,1),%zmm18
	vmovdqa64	1216(%rsp),%zmm22
.byte	98,146,125,72,220,198
.byte	98,146,101,72,220,222
.byte	98,146,93,40,220,230
	vbroadcastf64x2	64(%rdi),%zmm30


.byte	98,227,61,72,68,225,16
.byte	98,227,61,72,68,233,1
.byte	98,227,61,72,68,201,17
.byte	98,227,61,72,68,217,0
.byte	98,146,125,72,220,199
.byte	98,146,101,72,220,223
.byte	98,146,93,40,220,231
	vbroadcastf64x2	80(%rdi),%zmm31


	vpternlogq	$0x96,%zmm17,%zmm12,%zmm14
	vpternlogq	$0x96,%zmm19,%zmm13,%zmm7
	vpternlogq	$0x96,%zmm21,%zmm16,%zmm11
	vpternlogq	$0x96,%zmm20,%zmm15,%zmm10
.byte	98,146,125,72,220,198
.byte	98,146,101,72,220,222
.byte	98,146,93,40,220,230
	vbroadcastf64x2	96(%rdi),%zmm30
	vmovdqu8	0(%rcx,%rax,1),%zmm17
	vmovdqu8	64(%rcx,%rax,1),%zmm19
	vmovdqu8	128(%rcx,%rax,1),%ymm20{%k1}{z}
.byte	98,146,125,72,220,199
.byte	98,146,101,72,220,223
.byte	98,146,93,40,220,231
	vbroadcastf64x2	112(%rdi),%zmm31


.byte	98,51,77,64,68,250,16
.byte	98,163,77,64,68,194,1
.byte	98,51,77,64,68,226,17
.byte	98,51,77,64,68,234,0
.byte	98,146,125,72,220,198
.byte	98,146,101,72,220,222
.byte	98,146,93,40,220,230
	vbroadcastf64x2	128(%rdi),%zmm30
	vpternlogq	$0x96,%zmm16,%zmm11,%zmm10
	vpternlogq	$0x96,%zmm12,%zmm14,%zmm24
	vpternlogq	$0x96,%zmm13,%zmm7,%zmm25
	vpternlogq	$0x96,%zmm15,%zmm10,%zmm26
.byte	98,146,125,72,220,199
.byte	98,146,101,72,220,223
.byte	98,146,93,40,220,231
	vbroadcastf64x2	144(%rdi),%zmm31
.byte	98,146,125,72,220,198
.byte	98,146,101,72,220,222
.byte	98,146,93,40,220,230
	vbroadcastf64x2	160(%rdi),%zmm30
.byte	98,146,125,72,220,199
.byte	98,146,101,72,220,223
.byte	98,146,93,40,220,231
.byte	98,146,125,72,221,198
.byte	98,146,101,72,221,222
.byte	98,146,93,40,221,230
	vpxorq	%zmm17,%zmm0,%zmm0
	vpxorq	%zmm19,%zmm3,%zmm3
	vpxorq	%ymm20,%ymm4,%ymm4
	vextracti32x4	$1,%zmm4,%xmm11
	movq	%r9,%r10
	vmovdqu8	%zmm0,0(%r10,%rax,1)
	vmovdqu8	%zmm3,64(%r10,%rax,1)
	vmovdqu8	%ymm4,128(%r10,%rax,1){%k1}
	vmovdqu8	%zmm4,%zmm4{%k1}{z}
	vpshufb	%zmm29,%zmm0,%zmm17
	vpshufb	%zmm29,%zmm3,%zmm19
	vpshufb	%ymm29,%ymm4,%ymm20
	vextracti32x4	$1,%zmm20,%xmm7
	leaq	80(%rsi),%r10
	subq	$16 * (10 - 1),%r8


	cmpq	$16,%r8
	jl	.L_small_initial_partial_block_iankhgrgFnoiAgG





	subq	$16,%r8
	movl	$0,(%rdx)
	vmovdqu64	96(%r10),%zmm1
.byte	98,243,117,64,68,193,17
.byte	98,243,117,64,68,217,0
.byte	98,243,117,64,68,225,1
.byte	98,243,117,64,68,233,16
	vmovdqu64	160(%r10),%zmm1
.byte	98,115,101,64,68,193,17
.byte	98,227,101,64,68,241,0
.byte	98,99,101,64,68,241,1
.byte	98,99,101,64,68,249,16
	vpxorq	%zmm8,%zmm0,%zmm8
	vpxorq	%zmm22,%zmm3,%zmm22
	vpxorq	%zmm30,%zmm4,%zmm30
	vpxorq	%zmm31,%zmm5,%zmm31
	vmovdqu64	224(%r10),%ymm1
.byte	98,243,93,32,68,225,1
.byte	98,243,93,32,68,233,16
.byte	98,243,93,32,68,193,17
.byte	98,243,93,32,68,217,0

	vpxorq	%zmm30,%zmm4,%zmm4
	vpternlogq	$0x96,%zmm31,%zmm26,%zmm5
	vpternlogq	$0x96,%zmm8,%zmm24,%zmm0
	vpternlogq	$0x96,%zmm22,%zmm25,%zmm3

	vpxorq	%zmm5,%zmm4,%zmm4
	vpsrldq	$8,%zmm4,%zmm30
	vpslldq	$8,%zmm4,%zmm31
	vpxorq	%zmm30,%zmm0,%zmm0
	vpxorq	%zmm31,%zmm3,%zmm3
	vextracti64x4	$1,%zmm0,%ymm30
	vpxorq	%ymm30,%ymm0,%ymm0
	vextracti32x4	$1,%ymm0,%xmm30
	vpxorq	%xmm30,%xmm0,%xmm0
	vextracti64x4	$1,%zmm3,%ymm31
	vpxorq	%ymm31,%ymm3,%ymm3
	vextracti32x4	$1,%ymm3,%xmm31
	vpxorq	%xmm31,%xmm3,%xmm3
	vmovdqa64	POLY2(%rip),%xmm1


.byte	98,243,117,8,68,227,1
	vpslldq	$8,%xmm4,%xmm4
	vpxorq	%xmm4,%xmm3,%xmm4


.byte	98,243,117,8,68,236,0
	vpsrldq	$4,%xmm5,%xmm5
.byte	98,115,117,8,68,244,16
	vpslldq	$4,%xmm14,%xmm14
	vpternlogq	$0x96,%xmm0,%xmm5,%xmm14

	jmp	.L_small_initial_compute_done_iankhgrgFnoiAgG
.L_small_initial_partial_block_iankhgrgFnoiAgG:








	movl	%r8d,(%rdx)
	vmovdqu64	%xmm11,16(%rsi)
	vmovdqu64	112(%r10),%zmm1
.byte	98,243,117,64,68,193,17
.byte	98,243,117,64,68,217,0
.byte	98,243,117,64,68,225,1
.byte	98,243,117,64,68,233,16
	vmovdqu64	176(%r10),%zmm1
.byte	98,115,101,64,68,193,17
.byte	98,227,101,64,68,241,0
.byte	98,99,101,64,68,241,1
.byte	98,99,101,64,68,249,16
	vpxorq	%zmm8,%zmm0,%zmm8
	vpxorq	%zmm22,%zmm3,%zmm22
	vpxorq	%zmm30,%zmm4,%zmm30
	vpxorq	%zmm31,%zmm5,%zmm31
	vmovdqu64	240(%r10),%xmm1
.byte	98,243,93,0,68,225,1
.byte	98,243,93,0,68,233,16
.byte	98,243,93,0,68,193,17
.byte	98,243,93,0,68,217,0

	vpxorq	%zmm30,%zmm4,%zmm4
	vpternlogq	$0x96,%zmm31,%zmm26,%zmm5
	vpternlogq	$0x96,%zmm8,%zmm24,%zmm0
	vpternlogq	$0x96,%zmm22,%zmm25,%zmm3

	vpxorq	%zmm5,%zmm4,%zmm4
	vpsrldq	$8,%zmm4,%zmm30
	vpslldq	$8,%zmm4,%zmm31
	vpxorq	%zmm30,%zmm0,%zmm0
	vpxorq	%zmm31,%zmm3,%zmm3
	vextracti64x4	$1,%zmm0,%ymm30
	vpxorq	%ymm30,%ymm0,%ymm0
	vextracti32x4	$1,%ymm0,%xmm30
	vpxorq	%xmm30,%xmm0,%xmm0
	vextracti64x4	$1,%zmm3,%ymm31
	vpxorq	%ymm31,%ymm3,%ymm3
	vextracti32x4	$1,%ymm3,%xmm31
	vpxorq	%xmm31,%xmm3,%xmm3
	vmovdqa64	POLY2(%rip),%xmm1


.byte	98,243,117,8,68,227,1
	vpslldq	$8,%xmm4,%xmm4
	vpxorq	%xmm4,%xmm3,%xmm4


.byte	98,243,117,8,68,236,0
	vpsrldq	$4,%xmm5,%xmm5
.byte	98,115,117,8,68,244,16
	vpslldq	$4,%xmm14,%xmm14
	vpternlogq	$0x96,%xmm0,%xmm5,%xmm14

.L_small_initial_compute_done_iankhgrgFnoiAgG:

	orq	%r8,%r8
	je	.L_after_reduction_iankhgrgFnoiAgG
	vpxorq	%xmm7,%xmm14,%xmm14
.L_after_reduction_iankhgrgFnoiAgG:
	jmp	.L_last_blocks_done_BdcphecxdpdFEsb
.L_last_num_blocks_is_11_BdcphecxdpdFEsb:
	leaq	byte64_len_to_mask_table(%rip),%r10
	movq	%r8,%r11
	subq	$128,%r11
	kmovq	(%r10,%r11,8),%k1
	cmpl	$245,%r15d
	jae	.L_16_blocks_overflow_gnGEkpgDpmugvpk
	vpaddd	%zmm28,%zmm2,%zmm0
	vpaddd	%zmm27,%zmm0,%zmm3
	vpaddd	%zmm27,%zmm3,%zmm4
	jmp	.L_16_blocks_ok_gnGEkpgDpmugvpk

.L_16_blocks_overflow_gnGEkpgDpmugvpk:
	vpshufb	%zmm29,%zmm2,%zmm2
	vpaddd	ddq_add_1234(%rip),%zmm2,%zmm0
	vmovdqa64	ddq_add_4444(%rip),%zmm5
	vpaddd	%zmm5,%zmm0,%zmm3
	vpaddd	%zmm5,%zmm3,%zmm4
	vpshufb	%zmm29,%zmm0,%zmm0
	vpshufb	%zmm29,%zmm3,%zmm3
	vpshufb	%zmm29,%zmm4,%zmm4
.L_16_blocks_ok_gnGEkpgDpmugvpk:




	vbroadcastf64x2	0(%rdi),%zmm30
	vmovdqa64	1024(%rsp),%zmm8
	vmovdqu64	0(%rsp,%rbx,1),%zmm1
	vextracti32x4	$2,%zmm4,%xmm2
	vshufi64x2	$0,%zmm2,%zmm2,%zmm2


	vbroadcastf64x2	16(%rdi),%zmm31
	vmovdqu64	64(%rsp,%rbx,1),%zmm18
	vmovdqa64	1088(%rsp),%zmm22
	vpxorq	%zmm30,%zmm0,%zmm0
	vpxorq	%zmm30,%zmm3,%zmm3
	vpxorq	%zmm30,%zmm4,%zmm4
	vbroadcastf64x2	32(%rdi),%zmm30


.byte	98,115,61,72,68,241,17
.byte	98,243,61,72,68,249,0
.byte	98,115,61,72,68,209,1
.byte	98,115,61,72,68,217,16
	vmovdqu64	128(%rsp,%rbx,1),%zmm1
	vmovdqa64	1152(%rsp),%zmm8
.byte	98,146,125,72,220,199
.byte	98,146,101,72,220,223
.byte	98,146,93,72,220,231
	vbroadcastf64x2	48(%rdi),%zmm31


.byte	98,51,77,64,68,250,16
.byte	98,163,77,64,68,194,1
.byte	98,51,77,64,68,226,17
.byte	98,51,77,64,68,234,0
	vmovdqu64	192(%rsp,%rbx,1),%zmm18
	vmovdqa64	1216(%rsp),%zmm22
.byte	98,146,125,72,220,198
.byte	98,146,101,72,220,222
.byte	98,146,93,72,220,230
	vbroadcastf64x2	64(%rdi),%zmm30


.byte	98,227,61,72,68,225,16
.byte	98,227,61,72,68,233,1
.byte	98,227,61,72,68,201,17
.byte	98,227,61,72,68,217,0
.byte	98,146,125,72,220,199
.byte	98,146,101,72,220,223
.byte	98,146,93,72,220,231
	vbroadcastf64x2	80(%rdi),%zmm31


	vpternlogq	$0x96,%zmm17,%zmm12,%zmm14
	vpternlogq	$0x96,%zmm19,%zmm13,%zmm7
	vpternlogq	$0x96,%zmm21,%zmm16,%zmm11
	vpternlogq	$0x96,%zmm20,%zmm15,%zmm10
.byte	98,146,125,72,220,198
.byte	98,146,101,72,220,222
.byte	98,146,93,72,220,230
	vbroadcastf64x2	96(%rdi),%zmm30
	vmovdqu8	0(%rcx,%rax,1),%zmm17
	vmovdqu8	64(%rcx,%rax,1),%zmm19
	vmovdqu8	128(%rcx,%rax,1),%zmm20{%k1}{z}
.byte	98,146,125,72,220,199
.byte	98,146,101,72,220,223
.byte	98,146,93,72,220,231
	vbroadcastf64x2	112(%rdi),%zmm31


.byte	98,51,77,64,68,250,16
.byte	98,163,77,64,68,194,1
.byte	98,51,77,64,68,226,17
.byte	98,51,77,64,68,234,0
.byte	98,146,125,72,220,198
.byte	98,146,101,72,220,222
.byte	98,146,93,72,220,230
	vbroadcastf64x2	128(%rdi),%zmm30
	vpternlogq	$0x96,%zmm16,%zmm11,%zmm10
	vpternlogq	$0x96,%zmm12,%zmm14,%zmm24
	vpternlogq	$0x96,%zmm13,%zmm7,%zmm25
	vpternlogq	$0x96,%zmm15,%zmm10,%zmm26
.byte	98,146,125,72,220,199
.byte	98,146,101,72,220,223
.byte	98,146,93,72,220,231
	vbroadcastf64x2	144(%rdi),%zmm31
.byte	98,146,125,72,220,198
.byte	98,146,101,72,220,222
.byte	98,146,93,72,220,230
	vbroadcastf64x2	160(%rdi),%zmm30
.byte	98,146,125,72,220,199
.byte	98,146,101,72,220,223
.byte	98,146,93,72,220,231
.byte	98,146,125,72,221,198
.byte	98,146,101,72,221,222
.byte	98,146,93,72,221,230
	vpxorq	%zmm17,%zmm0,%zmm0
	vpxorq	%zmm19,%zmm3,%zmm3
	vpxorq	%zmm20,%zmm4,%zmm4
	vextracti32x4	$2,%zmm4,%xmm11
	movq	%r9,%r10
	vmovdqu8	%zmm0,0(%r10,%rax,1)
	vmovdqu8	%zmm3,64(%r10,%rax,1)
	vmovdqu8	%zmm4,128(%r10,%rax,1){%k1}
	vmovdqu8	%zmm4,%zmm4{%k1}{z}
	vpshufb	%zmm29,%zmm0,%zmm17
	vpshufb	%zmm29,%zmm3,%zmm19
	vpshufb	%zmm29,%zmm4,%zmm20
	vextracti32x4	$2,%zmm20,%xmm7
	leaq	80(%rsi),%r10
	subq	$16 * (11 - 1),%r8


	cmpq	$16,%r8
	jl	.L_small_initial_partial_block_sECkucceDhaBnCk





	subq	$16,%r8
	movl	$0,(%rdx)
	vmovdqu64	80(%r10),%zmm1
.byte	98,243,117,64,68,193,17
.byte	98,243,117,64,68,217,0
.byte	98,243,117,64,68,225,1
.byte	98,243,117,64,68,233,16
	vmovdqu64	144(%r10),%zmm1
.byte	98,115,101,64,68,193,17
.byte	98,227,101,64,68,241,0
.byte	98,99,101,64,68,241,1
.byte	98,99,101,64,68,249,16
	vpxorq	%zmm8,%zmm0,%zmm8
	vpxorq	%zmm22,%zmm3,%zmm22
	vpxorq	%zmm30,%zmm4,%zmm30
	vpxorq	%zmm31,%zmm5,%zmm31
	vmovdqu64	208(%r10),%ymm1
	vinserti64x2	$2,240(%r10),%zmm1,%zmm1
.byte	98,243,93,64,68,225,1
.byte	98,243,93,64,68,233,16
.byte	98,243,93,64,68,193,17
.byte	98,243,93,64,68,217,0

	vpxorq	%zmm30,%zmm4,%zmm4
	vpternlogq	$0x96,%zmm31,%zmm26,%zmm5
	vpternlogq	$0x96,%zmm8,%zmm24,%zmm0
	vpternlogq	$0x96,%zmm22,%zmm25,%zmm3

	vpxorq	%zmm5,%zmm4,%zmm4
	vpsrldq	$8,%zmm4,%zmm30
	vpslldq	$8,%zmm4,%zmm31
	vpxorq	%zmm30,%zmm0,%zmm0
	vpxorq	%zmm31,%zmm3,%zmm3
	vextracti64x4	$1,%zmm0,%ymm30
	vpxorq	%ymm30,%ymm0,%ymm0
	vextracti32x4	$1,%ymm0,%xmm30
	vpxorq	%xmm30,%xmm0,%xmm0
	vextracti64x4	$1,%zmm3,%ymm31
	vpxorq	%ymm31,%ymm3,%ymm3
	vextracti32x4	$1,%ymm3,%xmm31
	vpxorq	%xmm31,%xmm3,%xmm3
	vmovdqa64	POLY2(%rip),%xmm1


.byte	98,243,117,8,68,227,1
	vpslldq	$8,%xmm4,%xmm4
	vpxorq	%xmm4,%xmm3,%xmm4


.byte	98,243,117,8,68,236,0
	vpsrldq	$4,%xmm5,%xmm5
.byte	98,115,117,8,68,244,16
	vpslldq	$4,%xmm14,%xmm14
	vpternlogq	$0x96,%xmm0,%xmm5,%xmm14

	jmp	.L_small_initial_compute_done_sECkucceDhaBnCk
.L_small_initial_partial_block_sECkucceDhaBnCk:








	movl	%r8d,(%rdx)
	vmovdqu64	%xmm11,16(%rsi)
	vmovdqu64	96(%r10),%zmm1
.byte	98,243,117,64,68,193,17
.byte	98,243,117,64,68,217,0
.byte	98,243,117,64,68,225,1
.byte	98,243,117,64,68,233,16
	vmovdqu64	160(%r10),%zmm1
.byte	98,115,101,64,68,193,17
.byte	98,227,101,64,68,241,0
.byte	98,99,101,64,68,241,1
.byte	98,99,101,64,68,249,16
	vpxorq	%zmm8,%zmm0,%zmm8
	vpxorq	%zmm22,%zmm3,%zmm22
	vpxorq	%zmm30,%zmm4,%zmm30
	vpxorq	%zmm31,%zmm5,%zmm31
	vmovdqu64	224(%r10),%ymm1
.byte	98,243,93,32,68,225,1
.byte	98,243,93,32,68,233,16
.byte	98,243,93,32,68,193,17
.byte	98,243,93,32,68,217,0

	vpxorq	%zmm30,%zmm4,%zmm4
	vpternlogq	$0x96,%zmm31,%zmm26,%zmm5
	vpternlogq	$0x96,%zmm8,%zmm24,%zmm0
	vpternlogq	$0x96,%zmm22,%zmm25,%zmm3

	vpxorq	%zmm5,%zmm4,%zmm4
	vpsrldq	$8,%zmm4,%zmm30
	vpslldq	$8,%zmm4,%zmm31
	vpxorq	%zmm30,%zmm0,%zmm0
	vpxorq	%zmm31,%zmm3,%zmm3
	vextracti64x4	$1,%zmm0,%ymm30
	vpxorq	%ymm30,%ymm0,%ymm0
	vextracti32x4	$1,%ymm0,%xmm30
	vpxorq	%xmm30,%xmm0,%xmm0
	vextracti64x4	$1,%zmm3,%ymm31
	vpxorq	%ymm31,%ymm3,%ymm3
	vextracti32x4	$1,%ymm3,%xmm31
	vpxorq	%xmm31,%xmm3,%xmm3
	vmovdqa64	POLY2(%rip),%xmm1


.byte	98,243,117,8,68,227,1
	vpslldq	$8,%xmm4,%xmm4
	vpxorq	%xmm4,%xmm3,%xmm4


.byte	98,243,117,8,68,236,0
	vpsrldq	$4,%xmm5,%xmm5
.byte	98,115,117,8,68,244,16
	vpslldq	$4,%xmm14,%xmm14
	vpternlogq	$0x96,%xmm0,%xmm5,%xmm14

.L_small_initial_compute_done_sECkucceDhaBnCk:

	orq	%r8,%r8
	je	.L_after_reduction_sECkucceDhaBnCk
	vpxorq	%xmm7,%xmm14,%xmm14
.L_after_reduction_sECkucceDhaBnCk:
	jmp	.L_last_blocks_done_BdcphecxdpdFEsb
.L_last_num_blocks_is_12_BdcphecxdpdFEsb:
	leaq	byte64_len_to_mask_table(%rip),%r10
	movq	%r8,%r11
	subq	$128,%r11
	kmovq	(%r10,%r11,8),%k1
	cmpl	$244,%r15d
	jae	.L_16_blocks_overflow_qkecuzhoaAuxmmC
	vpaddd	%zmm28,%zmm2,%zmm0
	vpaddd	%zmm27,%zmm0,%zmm3
	vpaddd	%zmm27,%zmm3,%zmm4
	jmp	.L_16_blocks_ok_qkecuzhoaAuxmmC

.L_16_blocks_overflow_qkecuzhoaAuxmmC:
	vpshufb	%zmm29,%zmm2,%zmm2
	vpaddd	ddq_add_1234(%rip),%zmm2,%zmm0
	vmovdqa64	ddq_add_4444(%rip),%zmm5
	vpaddd	%zmm5,%zmm0,%zmm3
	vpaddd	%zmm5,%zmm3,%zmm4
	vpshufb	%zmm29,%zmm0,%zmm0
	vpshufb	%zmm29,%zmm3,%zmm3
	vpshufb	%zmm29,%zmm4,%zmm4
.L_16_blocks_ok_qkecuzhoaAuxmmC:




	vbroadcastf64x2	0(%rdi),%zmm30
	vmovdqa64	1024(%rsp),%zmm8
	vmovdqu64	0(%rsp,%rbx,1),%zmm1
	vextracti32x4	$3,%zmm4,%xmm2
	vshufi64x2	$0,%zmm2,%zmm2,%zmm2


	vbroadcastf64x2	16(%rdi),%zmm31
	vmovdqu64	64(%rsp,%rbx,1),%zmm18
	vmovdqa64	1088(%rsp),%zmm22
	vpxorq	%zmm30,%zmm0,%zmm0
	vpxorq	%zmm30,%zmm3,%zmm3
	vpxorq	%zmm30,%zmm4,%zmm4
	vbroadcastf64x2	32(%rdi),%zmm30


.byte	98,115,61,72,68,241,17
.byte	98,243,61,72,68,249,0
.byte	98,115,61,72,68,209,1
.byte	98,115,61,72,68,217,16
	vmovdqu64	128(%rsp,%rbx,1),%zmm1
	vmovdqa64	1152(%rsp),%zmm8
.byte	98,146,125,72,220,199
.byte	98,146,101,72,220,223
.byte	98,146,93,72,220,231
	vbroadcastf64x2	48(%rdi),%zmm31


.byte	98,51,77,64,68,250,16
.byte	98,163,77,64,68,194,1
.byte	98,51,77,64,68,226,17
.byte	98,51,77,64,68,234,0
	vmovdqu64	192(%rsp,%rbx,1),%zmm18
	vmovdqa64	1216(%rsp),%zmm22
.byte	98,146,125,72,220,198
.byte	98,146,101,72,220,222
.byte	98,146,93,72,220,230
	vbroadcastf64x2	64(%rdi),%zmm30


.byte	98,227,61,72,68,225,16
.byte	98,227,61,72,68,233,1
.byte	98,227,61,72,68,201,17
.byte	98,227,61,72,68,217,0
.byte	98,146,125,72,220,199
.byte	98,146,101,72,220,223
.byte	98,146,93,72,220,231
	vbroadcastf64x2	80(%rdi),%zmm31


	vpternlogq	$0x96,%zmm17,%zmm12,%zmm14
	vpternlogq	$0x96,%zmm19,%zmm13,%zmm7
	vpternlogq	$0x96,%zmm21,%zmm16,%zmm11
	vpternlogq	$0x96,%zmm20,%zmm15,%zmm10
.byte	98,146,125,72,220,198
.byte	98,146,101,72,220,222
.byte	98,146,93,72,220,230
	vbroadcastf64x2	96(%rdi),%zmm30
	vmovdqu8	0(%rcx,%rax,1),%zmm17
	vmovdqu8	64(%rcx,%rax,1),%zmm19
	vmovdqu8	128(%rcx,%rax,1),%zmm20{%k1}{z}
.byte	98,146,125,72,220,199
.byte	98,146,101,72,220,223
.byte	98,146,93,72,220,231
	vbroadcastf64x2	112(%rdi),%zmm31


.byte	98,51,77,64,68,250,16
.byte	98,163,77,64,68,194,1
.byte	98,51,77,64,68,226,17
.byte	98,51,77,64,68,234,0
.byte	98,146,125,72,220,198
.byte	98,146,101,72,220,222
.byte	98,146,93,72,220,230
	vbroadcastf64x2	128(%rdi),%zmm30
	vpternlogq	$0x96,%zmm16,%zmm11,%zmm10
	vpternlogq	$0x96,%zmm12,%zmm14,%zmm24
	vpternlogq	$0x96,%zmm13,%zmm7,%zmm25
	vpternlogq	$0x96,%zmm15,%zmm10,%zmm26
.byte	98,146,125,72,220,199
.byte	98,146,101,72,220,223
.byte	98,146,93,72,220,231
	vbroadcastf64x2	144(%rdi),%zmm31
.byte	98,146,125,72,220,198
.byte	98,146,101,72,220,222
.byte	98,146,93,72,220,230
	vbroadcastf64x2	160(%rdi),%zmm30
.byte	98,146,125,72,220,199
.byte	98,146,101,72,220,223
.byte	98,146,93,72,220,231
.byte	98,146,125,72,221,198
.byte	98,146,101,72,221,222
.byte	98,146,93,72,221,230
	vpxorq	%zmm17,%zmm0,%zmm0
	vpxorq	%zmm19,%zmm3,%zmm3
	vpxorq	%zmm20,%zmm4,%zmm4
	vextracti32x4	$3,%zmm4,%xmm11
	movq	%r9,%r10
	vmovdqu8	%zmm0,0(%r10,%rax,1)
	vmovdqu8	%zmm3,64(%r10,%rax,1)
	vmovdqu8	%zmm4,128(%r10,%rax,1){%k1}
	vmovdqu8	%zmm4,%zmm4{%k1}{z}
	vpshufb	%zmm29,%zmm0,%zmm17
	vpshufb	%zmm29,%zmm3,%zmm19
	vpshufb	%zmm29,%zmm4,%zmm20
	vextracti32x4	$3,%zmm20,%xmm7
	leaq	80(%rsi),%r10
	subq	$16 * (12 - 1),%r8


	cmpq	$16,%r8
	jl	.L_small_initial_partial_block_GEFnxzpzjbtbhxx





	subq	$16,%r8
	movl	$0,(%rdx)
	vmovdqu64	64(%r10),%zmm1
.byte	98,243,117,64,68,193,17
.byte	98,243,117,64,68,217,0
.byte	98,243,117,64,68,225,1
.byte	98,243,117,64,68,233,16
	vmovdqu64	128(%r10),%zmm1
.byte	98,115,101,64,68,193,17
.byte	98,227,101,64,68,241,0
.byte	98,99,101,64,68,241,1
.byte	98,99,101,64,68,249,16
	vmovdqu64	192(%r10),%zmm1
.byte	98,227,93,64,68,201,17
.byte	98,227,93,64,68,217,0
	vpternlogq	$0x96,%zmm0,%zmm17,%zmm8
	vpternlogq	$0x96,%zmm3,%zmm19,%zmm22
.byte	98,227,93,64,68,201,1
.byte	98,227,93,64,68,217,16
	vpternlogq	$0x96,%zmm4,%zmm17,%zmm30
	vpternlogq	$0x96,%zmm5,%zmm19,%zmm31

	vpxorq	%zmm26,%zmm30,%zmm30
	vpxorq	%zmm24,%zmm8,%zmm8
	vpxorq	%zmm25,%zmm22,%zmm22

	vpxorq	%zmm31,%zmm30,%zmm30
	vpsrldq	$8,%zmm30,%zmm4
	vpslldq	$8,%zmm30,%zmm5
	vpxorq	%zmm4,%zmm8,%zmm0
	vpxorq	%zmm5,%zmm22,%zmm3
	vextracti64x4	$1,%zmm0,%ymm30
	vpxorq	%ymm30,%ymm0,%ymm0
	vextracti32x4	$1,%ymm0,%xmm30
	vpxorq	%xmm30,%xmm0,%xmm0
	vextracti64x4	$1,%zmm3,%ymm31
	vpxorq	%ymm31,%ymm3,%ymm3
	vextracti32x4	$1,%ymm3,%xmm31
	vpxorq	%xmm31,%xmm3,%xmm3
	vmovdqa64	POLY2(%rip),%xmm1


.byte	98,243,117,8,68,227,1
	vpslldq	$8,%xmm4,%xmm4
	vpxorq	%xmm4,%xmm3,%xmm4


.byte	98,243,117,8,68,236,0
	vpsrldq	$4,%xmm5,%xmm5
.byte	98,115,117,8,68,244,16
	vpslldq	$4,%xmm14,%xmm14
	vpternlogq	$0x96,%xmm0,%xmm5,%xmm14

	jmp	.L_small_initial_compute_done_GEFnxzpzjbtbhxx
.L_small_initial_partial_block_GEFnxzpzjbtbhxx:








	movl	%r8d,(%rdx)
	vmovdqu64	%xmm11,16(%rsi)
	vmovdqu64	80(%r10),%zmm1
.byte	98,243,117,64,68,193,17
.byte	98,243,117,64,68,217,0
.byte	98,243,117,64,68,225,1
.byte	98,243,117,64,68,233,16
	vmovdqu64	144(%r10),%zmm1
.byte	98,115,101,64,68,193,17
.byte	98,227,101,64,68,241,0
.byte	98,99,101,64,68,241,1
.byte	98,99,101,64,68,249,16
	vpxorq	%zmm8,%zmm0,%zmm8
	vpxorq	%zmm22,%zmm3,%zmm22
	vpxorq	%zmm30,%zmm4,%zmm30
	vpxorq	%zmm31,%zmm5,%zmm31
	vmovdqu64	208(%r10),%ymm1
	vinserti64x2	$2,240(%r10),%zmm1,%zmm1
.byte	98,243,93,64,68,225,1
.byte	98,243,93,64,68,233,16
.byte	98,243,93,64,68,193,17
.byte	98,243,93,64,68,217,0

	vpxorq	%zmm30,%zmm4,%zmm4
	vpternlogq	$0x96,%zmm31,%zmm26,%zmm5
	vpternlogq	$0x96,%zmm8,%zmm24,%zmm0
	vpternlogq	$0x96,%zmm22,%zmm25,%zmm3

	vpxorq	%zmm5,%zmm4,%zmm4
	vpsrldq	$8,%zmm4,%zmm30
	vpslldq	$8,%zmm4,%zmm31
	vpxorq	%zmm30,%zmm0,%zmm0
	vpxorq	%zmm31,%zmm3,%zmm3
	vextracti64x4	$1,%zmm0,%ymm30
	vpxorq	%ymm30,%ymm0,%ymm0
	vextracti32x4	$1,%ymm0,%xmm30
	vpxorq	%xmm30,%xmm0,%xmm0
	vextracti64x4	$1,%zmm3,%ymm31
	vpxorq	%ymm31,%ymm3,%ymm3
	vextracti32x4	$1,%ymm3,%xmm31
	vpxorq	%xmm31,%xmm3,%xmm3
	vmovdqa64	POLY2(%rip),%xmm1


.byte	98,243,117,8,68,227,1
	vpslldq	$8,%xmm4,%xmm4
	vpxorq	%xmm4,%xmm3,%xmm4


.byte	98,243,117,8,68,236,0
	vpsrldq	$4,%xmm5,%xmm5
.byte	98,115,117,8,68,244,16
	vpslldq	$4,%xmm14,%xmm14
	vpternlogq	$0x96,%xmm0,%xmm5,%xmm14

.L_small_initial_compute_done_GEFnxzpzjbtbhxx:

	orq	%r8,%r8
	je	.L_after_reduction_GEFnxzpzjbtbhxx
	vpxorq	%xmm7,%xmm14,%xmm14
.L_after_reduction_GEFnxzpzjbtbhxx:
	jmp	.L_last_blocks_done_BdcphecxdpdFEsb
.L_last_num_blocks_is_13_BdcphecxdpdFEsb:
	leaq	byte64_len_to_mask_table(%rip),%r10
	movq	%r8,%r11
	subq	$192,%r11
	kmovq	(%r10,%r11,8),%k1
	cmpl	$243,%r15d
	jae	.L_16_blocks_overflow_BjhkFcriuCnuFez
	vpaddd	%zmm28,%zmm2,%zmm0
	vpaddd	%zmm27,%zmm0,%zmm3
	vpaddd	%zmm27,%zmm3,%zmm4
	vpaddd	%xmm27,%xmm4,%xmm5
	jmp	.L_16_blocks_ok_BjhkFcriuCnuFez

.L_16_blocks_overflow_BjhkFcriuCnuFez:
	vpshufb	%zmm29,%zmm2,%zmm2
	vpaddd	ddq_add_1234(%rip),%zmm2,%zmm0
	vmovdqa64	ddq_add_4444(%rip),%zmm5
	vpaddd	%zmm5,%zmm0,%zmm3
	vpaddd	%zmm5,%zmm3,%zmm4
	vpaddd	%zmm5,%zmm4,%zmm5
	vpshufb	%zmm29,%zmm0,%zmm0
	vpshufb	%zmm29,%zmm3,%zmm3
	vpshufb	%zmm29,%zmm4,%zmm4
	vpshufb	%xmm29,%xmm5,%xmm5
.L_16_blocks_ok_BjhkFcriuCnuFez:




	vbroadcastf64x2	0(%rdi),%zmm30
	vmovdqa64	1024(%rsp),%zmm8
	vmovdqu64	0(%rsp,%rbx,1),%zmm1
	vextracti32x4	$0,%zmm5,%xmm2
	vshufi64x2	$0,%zmm2,%zmm2,%zmm2


	vbroadcastf64x2	16(%rdi),%zmm31
	vmovdqu64	64(%rsp,%rbx,1),%zmm18
	vmovdqa64	1088(%rsp),%zmm22
	vpxorq	%zmm30,%zmm0,%zmm0
	vpxorq	%zmm30,%zmm3,%zmm3
	vpxorq	%zmm30,%zmm4,%zmm4
	vpxorq	%xmm30,%xmm5,%xmm5
	vbroadcastf64x2	32(%rdi),%zmm30


.byte	98,115,61,72,68,241,17
.byte	98,243,61,72,68,249,0
.byte	98,115,61,72,68,209,1
.byte	98,115,61,72,68,217,16
	vmovdqu64	128(%rsp,%rbx,1),%zmm1
	vmovdqa64	1152(%rsp),%zmm8
.byte	98,146,125,72,220,199
.byte	98,146,101,72,220,223
.byte	98,146,93,72,220,231
.byte	98,146,85,8,220,239
	vbroadcastf64x2	48(%rdi),%zmm31


.byte	98,51,77,64,68,250,16
.byte	98,163,77,64,68,194,1
.byte	98,51,77,64,68,226,17
.byte	98,51,77,64,68,234,0
	vmovdqu64	192(%rsp,%rbx,1),%zmm18
	vmovdqa64	1216(%rsp),%zmm22
.byte	98,146,125,72,220,198
.byte	98,146,101,72,220,222
.byte	98,146,93,72,220,230
.byte	98,146,85,8,220,238
	vbroadcastf64x2	64(%rdi),%zmm30


.byte	98,227,61,72,68,225,16
.byte	98,227,61,72,68,233,1
.byte	98,227,61,72,68,201,17
.byte	98,227,61,72,68,217,0
.byte	98,146,125,72,220,199
.byte	98,146,101,72,220,223
.byte	98,146,93,72,220,231
.byte	98,146,85,8,220,239
	vbroadcastf64x2	80(%rdi),%zmm31


	vpternlogq	$0x96,%zmm17,%zmm12,%zmm14
	vpternlogq	$0x96,%zmm19,%zmm13,%zmm7
	vpternlogq	$0x96,%zmm21,%zmm16,%zmm11
	vpternlogq	$0x96,%zmm20,%zmm15,%zmm10
.byte	98,146,125,72,220,198
.byte	98,146,101,72,220,222
.byte	98,146,93,72,220,230
.byte	98,146,85,8,220,238
	vbroadcastf64x2	96(%rdi),%zmm30
	vmovdqu8	0(%rcx,%rax,1),%zmm17
	vmovdqu8	64(%rcx,%rax,1),%zmm19
	vmovdqu8	128(%rcx,%rax,1),%zmm20
	vmovdqu8	192(%rcx,%rax,1),%xmm21{%k1}{z}
.byte	98,146,125,72,220,199
.byte	98,146,101,72,220,223
.byte	98,146,93,72,220,231
.byte	98,146,85,8,220,239
	vbroadcastf64x2	112(%rdi),%zmm31


.byte	98,51,77,64,68,250,16
.byte	98,163,77,64,68,194,1
.byte	98,51,77,64,68,226,17
.byte	98,51,77,64,68,234,0
.byte	98,146,125,72,220,198
.byte	98,146,101,72,220,222
.byte	98,146,93,72,220,230
.byte	98,146,85,8,220,238
	vbroadcastf64x2	128(%rdi),%zmm30
	vpternlogq	$0x96,%zmm16,%zmm11,%zmm10
	vpternlogq	$0x96,%zmm12,%zmm14,%zmm24
	vpternlogq	$0x96,%zmm13,%zmm7,%zmm25
	vpternlogq	$0x96,%zmm15,%zmm10,%zmm26
.byte	98,146,125,72,220,199
.byte	98,146,101,72,220,223
.byte	98,146,93,72,220,231
.byte	98,146,85,8,220,239
	vbroadcastf64x2	144(%rdi),%zmm31
.byte	98,146,125,72,220,198
.byte	98,146,101,72,220,222
.byte	98,146,93,72,220,230
.byte	98,146,85,8,220,238
	vbroadcastf64x2	160(%rdi),%zmm30
.byte	98,146,125,72,220,199
.byte	98,146,101,72,220,223
.byte	98,146,93,72,220,231
.byte	98,146,85,8,220,239
.byte	98,146,125,72,221,198
.byte	98,146,101,72,221,222
.byte	98,146,93,72,221,230
.byte	98,146,85,8,221,238
	vpxorq	%zmm17,%zmm0,%zmm0
	vpxorq	%zmm19,%zmm3,%zmm3
	vpxorq	%zmm20,%zmm4,%zmm4
	vpxorq	%xmm21,%xmm5,%xmm5
	vextracti32x4	$0,%zmm5,%xmm11
	movq	%r9,%r10
	vmovdqu8	%zmm0,0(%r10,%rax,1)
	vmovdqu8	%zmm3,64(%r10,%rax,1)
	vmovdqu8	%zmm4,128(%r10,%rax,1)
	vmovdqu8	%xmm5,192(%r10,%rax,1){%k1}
	vmovdqu8	%zmm5,%zmm5{%k1}{z}
	vpshufb	%zmm29,%zmm0,%zmm17
	vpshufb	%zmm29,%zmm3,%zmm19
	vpshufb	%zmm29,%zmm4,%zmm20
	vpshufb	%xmm29,%xmm5,%xmm21
	vextracti32x4	$0,%zmm21,%xmm7
	leaq	80(%rsi),%r10
	subq	$16 * (13 - 1),%r8


	cmpq	$16,%r8
	jl	.L_small_initial_partial_block_jyxtluvpAmFhjFk





	subq	$16,%r8
	movl	$0,(%rdx)
	vmovdqu64	48(%r10),%zmm1
.byte	98,243,117,64,68,193,17
.byte	98,243,117,64,68,217,0
.byte	98,243,117,64,68,225,1
.byte	98,243,117,64,68,233,16
	vmovdqu64	112(%r10),%zmm1
.byte	98,115,101,64,68,193,17
.byte	98,227,101,64,68,241,0
.byte	98,99,101,64,68,241,1
.byte	98,99,101,64,68,249,16
	vmovdqu64	176(%r10),%zmm1
.byte	98,227,93,64,68,201,17
.byte	98,227,93,64,68,217,0
	vpternlogq	$0x96,%zmm0,%zmm17,%zmm8
	vpternlogq	$0x96,%zmm3,%zmm19,%zmm22
.byte	98,227,93,64,68,201,1
.byte	98,227,93,64,68,217,16
	vpternlogq	$0x96,%zmm4,%zmm17,%zmm30
	vpternlogq	$0x96,%zmm5,%zmm19,%zmm31
	vmovdqu64	240(%r10),%xmm1
.byte	98,243,85,0,68,225,1
.byte	98,243,85,0,68,233,16
.byte	98,243,85,0,68,193,17
.byte	98,243,85,0,68,217,0

	vpxorq	%zmm30,%zmm4,%zmm4
	vpternlogq	$0x96,%zmm31,%zmm26,%zmm5
	vpternlogq	$0x96,%zmm8,%zmm24,%zmm0
	vpternlogq	$0x96,%zmm22,%zmm25,%zmm3

	vpxorq	%zmm5,%zmm4,%zmm4
	vpsrldq	$8,%zmm4,%zmm30
	vpslldq	$8,%zmm4,%zmm31
	vpxorq	%zmm30,%zmm0,%zmm0
	vpxorq	%zmm31,%zmm3,%zmm3
	vextracti64x4	$1,%zmm0,%ymm30
	vpxorq	%ymm30,%ymm0,%ymm0
	vextracti32x4	$1,%ymm0,%xmm30
	vpxorq	%xmm30,%xmm0,%xmm0
	vextracti64x4	$1,%zmm3,%ymm31
	vpxorq	%ymm31,%ymm3,%ymm3
	vextracti32x4	$1,%ymm3,%xmm31
	vpxorq	%xmm31,%xmm3,%xmm3
	vmovdqa64	POLY2(%rip),%xmm1


.byte	98,243,117,8,68,227,1
	vpslldq	$8,%xmm4,%xmm4
	vpxorq	%xmm4,%xmm3,%xmm4


.byte	98,243,117,8,68,236,0
	vpsrldq	$4,%xmm5,%xmm5
.byte	98,115,117,8,68,244,16
	vpslldq	$4,%xmm14,%xmm14
	vpternlogq	$0x96,%xmm0,%xmm5,%xmm14

	jmp	.L_small_initial_compute_done_jyxtluvpAmFhjFk
.L_small_initial_partial_block_jyxtluvpAmFhjFk:








	movl	%r8d,(%rdx)
	vmovdqu64	%xmm11,16(%rsi)
	vmovdqu64	64(%r10),%zmm1
.byte	98,243,117,64,68,193,17
.byte	98,243,117,64,68,217,0
.byte	98,243,117,64,68,225,1
.byte	98,243,117,64,68,233,16
	vmovdqu64	128(%r10),%zmm1
.byte	98,115,101,64,68,193,17
.byte	98,227,101,64,68,241,0
.byte	98,99,101,64,68,241,1
.byte	98,99,101,64,68,249,16
	vmovdqu64	192(%r10),%zmm1
.byte	98,227,93,64,68,201,17
.byte	98,227,93,64,68,217,0
	vpternlogq	$0x96,%zmm0,%zmm17,%zmm8
	vpternlogq	$0x96,%zmm3,%zmm19,%zmm22
.byte	98,227,93,64,68,201,1
.byte	98,227,93,64,68,217,16
	vpternlogq	$0x96,%zmm4,%zmm17,%zmm30
	vpternlogq	$0x96,%zmm5,%zmm19,%zmm31

	vpxorq	%zmm26,%zmm30,%zmm30
	vpxorq	%zmm24,%zmm8,%zmm8
	vpxorq	%zmm25,%zmm22,%zmm22

	vpxorq	%zmm31,%zmm30,%zmm30
	vpsrldq	$8,%zmm30,%zmm4
	vpslldq	$8,%zmm30,%zmm5
	vpxorq	%zmm4,%zmm8,%zmm0
	vpxorq	%zmm5,%zmm22,%zmm3
	vextracti64x4	$1,%zmm0,%ymm30
	vpxorq	%ymm30,%ymm0,%ymm0
	vextracti32x4	$1,%ymm0,%xmm30
	vpxorq	%xmm30,%xmm0,%xmm0
	vextracti64x4	$1,%zmm3,%ymm31
	vpxorq	%ymm31,%ymm3,%ymm3
	vextracti32x4	$1,%ymm3,%xmm31
	vpxorq	%xmm31,%xmm3,%xmm3
	vmovdqa64	POLY2(%rip),%xmm1


.byte	98,243,117,8,68,227,1
	vpslldq	$8,%xmm4,%xmm4
	vpxorq	%xmm4,%xmm3,%xmm4


.byte	98,243,117,8,68,236,0
	vpsrldq	$4,%xmm5,%xmm5
.byte	98,115,117,8,68,244,16
	vpslldq	$4,%xmm14,%xmm14
	vpternlogq	$0x96,%xmm0,%xmm5,%xmm14

.L_small_initial_compute_done_jyxtluvpAmFhjFk:

	orq	%r8,%r8
	je	.L_after_reduction_jyxtluvpAmFhjFk
	vpxorq	%xmm7,%xmm14,%xmm14
.L_after_reduction_jyxtluvpAmFhjFk:
	jmp	.L_last_blocks_done_BdcphecxdpdFEsb
.L_last_num_blocks_is_14_BdcphecxdpdFEsb:
	leaq	byte64_len_to_mask_table(%rip),%r10
	movq	%r8,%r11
	subq	$192,%r11
	kmovq	(%r10,%r11,8),%k1
	cmpl	$242,%r15d
	jae	.L_16_blocks_overflow_kGBwgppdvolmGmc
	vpaddd	%zmm28,%zmm2,%zmm0
	vpaddd	%zmm27,%zmm0,%zmm3
	vpaddd	%zmm27,%zmm3,%zmm4
	vpaddd	%ymm27,%ymm4,%ymm5
	jmp	.L_16_blocks_ok_kGBwgppdvolmGmc

.L_16_blocks_overflow_kGBwgppdvolmGmc:
	vpshufb	%zmm29,%zmm2,%zmm2
	vpaddd	ddq_add_1234(%rip),%zmm2,%zmm0
	vmovdqa64	ddq_add_4444(%rip),%zmm5
	vpaddd	%zmm5,%zmm0,%zmm3
	vpaddd	%zmm5,%zmm3,%zmm4
	vpaddd	%zmm5,%zmm4,%zmm5
	vpshufb	%zmm29,%zmm0,%zmm0
	vpshufb	%zmm29,%zmm3,%zmm3
	vpshufb	%zmm29,%zmm4,%zmm4
	vpshufb	%ymm29,%ymm5,%ymm5
.L_16_blocks_ok_kGBwgppdvolmGmc:




	vbroadcastf64x2	0(%rdi),%zmm30
	vmovdqa64	1024(%rsp),%zmm8
	vmovdqu64	0(%rsp,%rbx,1),%zmm1
	vextracti32x4	$1,%zmm5,%xmm2
	vshufi64x2	$0,%zmm2,%zmm2,%zmm2


	vbroadcastf64x2	16(%rdi),%zmm31
	vmovdqu64	64(%rsp,%rbx,1),%zmm18
	vmovdqa64	1088(%rsp),%zmm22
	vpxorq	%zmm30,%zmm0,%zmm0
	vpxorq	%zmm30,%zmm3,%zmm3
	vpxorq	%zmm30,%zmm4,%zmm4
	vpxorq	%ymm30,%ymm5,%ymm5
	vbroadcastf64x2	32(%rdi),%zmm30


.byte	98,115,61,72,68,241,17
.byte	98,243,61,72,68,249,0
.byte	98,115,61,72,68,209,1
.byte	98,115,61,72,68,217,16
	vmovdqu64	128(%rsp,%rbx,1),%zmm1
	vmovdqa64	1152(%rsp),%zmm8
.byte	98,146,125,72,220,199
.byte	98,146,101,72,220,223
.byte	98,146,93,72,220,231
.byte	98,146,85,40,220,239
	vbroadcastf64x2	48(%rdi),%zmm31


.byte	98,51,77,64,68,250,16
.byte	98,163,77,64,68,194,1
.byte	98,51,77,64,68,226,17
.byte	98,51,77,64,68,234,0
	vmovdqu64	192(%rsp,%rbx,1),%zmm18
	vmovdqa64	1216(%rsp),%zmm22
.byte	98,146,125,72,220,198
.byte	98,146,101,72,220,222
.byte	98,146,93,72,220,230
.byte	98,146,85,40,220,238
	vbroadcastf64x2	64(%rdi),%zmm30


.byte	98,227,61,72,68,225,16
.byte	98,227,61,72,68,233,1
.byte	98,227,61,72,68,201,17
.byte	98,227,61,72,68,217,0
.byte	98,146,125,72,220,199
.byte	98,146,101,72,220,223
.byte	98,146,93,72,220,231
.byte	98,146,85,40,220,239
	vbroadcastf64x2	80(%rdi),%zmm31


	vpternlogq	$0x96,%zmm17,%zmm12,%zmm14
	vpternlogq	$0x96,%zmm19,%zmm13,%zmm7
	vpternlogq	$0x96,%zmm21,%zmm16,%zmm11
	vpternlogq	$0x96,%zmm20,%zmm15,%zmm10
.byte	98,146,125,72,220,198
.byte	98,146,101,72,220,222
.byte	98,146,93,72,220,230
.byte	98,146,85,40,220,238
	vbroadcastf64x2	96(%rdi),%zmm30
	vmovdqu8	0(%rcx,%rax,1),%zmm17
	vmovdqu8	64(%rcx,%rax,1),%zmm19
	vmovdqu8	128(%rcx,%rax,1),%zmm20
	vmovdqu8	192(%rcx,%rax,1),%ymm21{%k1}{z}
.byte	98,146,125,72,220,199
.byte	98,146,101,72,220,223
.byte	98,146,93,72,220,231
.byte	98,146,85,40,220,239
	vbroadcastf64x2	112(%rdi),%zmm31


.byte	98,51,77,64,68,250,16
.byte	98,163,77,64,68,194,1
.byte	98,51,77,64,68,226,17
.byte	98,51,77,64,68,234,0
.byte	98,146,125,72,220,198
.byte	98,146,101,72,220,222
.byte	98,146,93,72,220,230
.byte	98,146,85,40,220,238
	vbroadcastf64x2	128(%rdi),%zmm30
	vpternlogq	$0x96,%zmm16,%zmm11,%zmm10
	vpternlogq	$0x96,%zmm12,%zmm14,%zmm24
	vpternlogq	$0x96,%zmm13,%zmm7,%zmm25
	vpternlogq	$0x96,%zmm15,%zmm10,%zmm26
.byte	98,146,125,72,220,199
.byte	98,146,101,72,220,223
.byte	98,146,93,72,220,231
.byte	98,146,85,40,220,239
	vbroadcastf64x2	144(%rdi),%zmm31
.byte	98,146,125,72,220,198
.byte	98,146,101,72,220,222
.byte	98,146,93,72,220,230
.byte	98,146,85,40,220,238
	vbroadcastf64x2	160(%rdi),%zmm30
.byte	98,146,125,72,220,199
.byte	98,146,101,72,220,223
.byte	98,146,93,72,220,231
.byte	98,146,85,40,220,239
.byte	98,146,125,72,221,198
.byte	98,146,101,72,221,222
.byte	98,146,93,72,221,230
.byte	98,146,85,40,221,238
	vpxorq	%zmm17,%zmm0,%zmm0
	vpxorq	%zmm19,%zmm3,%zmm3
	vpxorq	%zmm20,%zmm4,%zmm4
	vpxorq	%ymm21,%ymm5,%ymm5
	vextracti32x4	$1,%zmm5,%xmm11
	movq	%r9,%r10
	vmovdqu8	%zmm0,0(%r10,%rax,1)
	vmovdqu8	%zmm3,64(%r10,%rax,1)
	vmovdqu8	%zmm4,128(%r10,%rax,1)
	vmovdqu8	%ymm5,192(%r10,%rax,1){%k1}
	vmovdqu8	%zmm5,%zmm5{%k1}{z}
	vpshufb	%zmm29,%zmm0,%zmm17
	vpshufb	%zmm29,%zmm3,%zmm19
	vpshufb	%zmm29,%zmm4,%zmm20
	vpshufb	%ymm29,%ymm5,%ymm21
	vextracti32x4	$1,%zmm21,%xmm7
	leaq	80(%rsi),%r10
	subq	$16 * (14 - 1),%r8


	cmpq	$16,%r8
	jl	.L_small_initial_partial_block_AxanimCshomfwbg





	subq	$16,%r8
	movl	$0,(%rdx)
	vmovdqu64	32(%r10),%zmm1
.byte	98,243,117,64,68,193,17
.byte	98,243,117,64,68,217,0
.byte	98,243,117,64,68,225,1
.byte	98,243,117,64,68,233,16
	vmovdqu64	96(%r10),%zmm1
.byte	98,115,101,64,68,193,17
.byte	98,227,101,64,68,241,0
.byte	98,99,101,64,68,241,1
.byte	98,99,101,64,68,249,16
	vmovdqu64	160(%r10),%zmm1
.byte	98,227,93,64,68,201,17
.byte	98,227,93,64,68,217,0
	vpternlogq	$0x96,%zmm0,%zmm17,%zmm8
	vpternlogq	$0x96,%zmm3,%zmm19,%zmm22
.byte	98,227,93,64,68,201,1
.byte	98,227,93,64,68,217,16
	vpternlogq	$0x96,%zmm4,%zmm17,%zmm30
	vpternlogq	$0x96,%zmm5,%zmm19,%zmm31
	vmovdqu64	224(%r10),%ymm1
.byte	98,243,85,32,68,225,1
.byte	98,243,85,32,68,233,16
.byte	98,243,85,32,68,193,17
.byte	98,243,85,32,68,217,0

	vpxorq	%zmm30,%zmm4,%zmm4
	vpternlogq	$0x96,%zmm31,%zmm26,%zmm5
	vpternlogq	$0x96,%zmm8,%zmm24,%zmm0
	vpternlogq	$0x96,%zmm22,%zmm25,%zmm3

	vpxorq	%zmm5,%zmm4,%zmm4
	vpsrldq	$8,%zmm4,%zmm30
	vpslldq	$8,%zmm4,%zmm31
	vpxorq	%zmm30,%zmm0,%zmm0
	vpxorq	%zmm31,%zmm3,%zmm3
	vextracti64x4	$1,%zmm0,%ymm30
	vpxorq	%ymm30,%ymm0,%ymm0
	vextracti32x4	$1,%ymm0,%xmm30
	vpxorq	%xmm30,%xmm0,%xmm0
	vextracti64x4	$1,%zmm3,%ymm31
	vpxorq	%ymm31,%ymm3,%ymm3
	vextracti32x4	$1,%ymm3,%xmm31
	vpxorq	%xmm31,%xmm3,%xmm3
	vmovdqa64	POLY2(%rip),%xmm1


.byte	98,243,117,8,68,227,1
	vpslldq	$8,%xmm4,%xmm4
	vpxorq	%xmm4,%xmm3,%xmm4


.byte	98,243,117,8,68,236,0
	vpsrldq	$4,%xmm5,%xmm5
.byte	98,115,117,8,68,244,16
	vpslldq	$4,%xmm14,%xmm14
	vpternlogq	$0x96,%xmm0,%xmm5,%xmm14

	jmp	.L_small_initial_compute_done_AxanimCshomfwbg
.L_small_initial_partial_block_AxanimCshomfwbg:








	movl	%r8d,(%rdx)
	vmovdqu64	%xmm11,16(%rsi)
	vmovdqu64	48(%r10),%zmm1
.byte	98,243,117,64,68,193,17
.byte	98,243,117,64,68,217,0
.byte	98,243,117,64,68,225,1
.byte	98,243,117,64,68,233,16
	vmovdqu64	112(%r10),%zmm1
.byte	98,115,101,64,68,193,17
.byte	98,227,101,64,68,241,0
.byte	98,99,101,64,68,241,1
.byte	98,99,101,64,68,249,16
	vmovdqu64	176(%r10),%zmm1
.byte	98,227,93,64,68,201,17
.byte	98,227,93,64,68,217,0
	vpternlogq	$0x96,%zmm0,%zmm17,%zmm8
	vpternlogq	$0x96,%zmm3,%zmm19,%zmm22
.byte	98,227,93,64,68,201,1
.byte	98,227,93,64,68,217,16
	vpternlogq	$0x96,%zmm4,%zmm17,%zmm30
	vpternlogq	$0x96,%zmm5,%zmm19,%zmm31
	vmovdqu64	240(%r10),%xmm1
.byte	98,243,85,0,68,225,1
.byte	98,243,85,0,68,233,16
.byte	98,243,85,0,68,193,17
.byte	98,243,85,0,68,217,0

	vpxorq	%zmm30,%zmm4,%zmm4
	vpternlogq	$0x96,%zmm31,%zmm26,%zmm5
	vpternlogq	$0x96,%zmm8,%zmm24,%zmm0
	vpternlogq	$0x96,%zmm22,%zmm25,%zmm3

	vpxorq	%zmm5,%zmm4,%zmm4
	vpsrldq	$8,%zmm4,%zmm30
	vpslldq	$8,%zmm4,%zmm31
	vpxorq	%zmm30,%zmm0,%zmm0
	vpxorq	%zmm31,%zmm3,%zmm3
	vextracti64x4	$1,%zmm0,%ymm30
	vpxorq	%ymm30,%ymm0,%ymm0
	vextracti32x4	$1,%ymm0,%xmm30
	vpxorq	%xmm30,%xmm0,%xmm0
	vextracti64x4	$1,%zmm3,%ymm31
	vpxorq	%ymm31,%ymm3,%ymm3
	vextracti32x4	$1,%ymm3,%xmm31
	vpxorq	%xmm31,%xmm3,%xmm3
	vmovdqa64	POLY2(%rip),%xmm1


.byte	98,243,117,8,68,227,1
	vpslldq	$8,%xmm4,%xmm4
	vpxorq	%xmm4,%xmm3,%xmm4


.byte	98,243,117,8,68,236,0
	vpsrldq	$4,%xmm5,%xmm5
.byte	98,115,117,8,68,244,16
	vpslldq	$4,%xmm14,%xmm14
	vpternlogq	$0x96,%xmm0,%xmm5,%xmm14

.L_small_initial_compute_done_AxanimCshomfwbg:

	orq	%r8,%r8
	je	.L_after_reduction_AxanimCshomfwbg
	vpxorq	%xmm7,%xmm14,%xmm14
.L_after_reduction_AxanimCshomfwbg:
	jmp	.L_last_blocks_done_BdcphecxdpdFEsb
.L_last_num_blocks_is_15_BdcphecxdpdFEsb:
	leaq	byte64_len_to_mask_table(%rip),%r10
	movq	%r8,%r11
	subq	$192,%r11
	kmovq	(%r10,%r11,8),%k1
	cmpl	$241,%r15d
	jae	.L_16_blocks_overflow_EBkkfjcEDyEptfo
	vpaddd	%zmm28,%zmm2,%zmm0
	vpaddd	%zmm27,%zmm0,%zmm3
	vpaddd	%zmm27,%zmm3,%zmm4
	vpaddd	%zmm27,%zmm4,%zmm5
	jmp	.L_16_blocks_ok_EBkkfjcEDyEptfo

.L_16_blocks_overflow_EBkkfjcEDyEptfo:
	vpshufb	%zmm29,%zmm2,%zmm2
	vpaddd	ddq_add_1234(%rip),%zmm2,%zmm0
	vmovdqa64	ddq_add_4444(%rip),%zmm5
	vpaddd	%zmm5,%zmm0,%zmm3
	vpaddd	%zmm5,%zmm3,%zmm4
	vpaddd	%zmm5,%zmm4,%zmm5
	vpshufb	%zmm29,%zmm0,%zmm0
	vpshufb	%zmm29,%zmm3,%zmm3
	vpshufb	%zmm29,%zmm4,%zmm4
	vpshufb	%zmm29,%zmm5,%zmm5
.L_16_blocks_ok_EBkkfjcEDyEptfo:




	vbroadcastf64x2	0(%rdi),%zmm30
	vmovdqa64	1024(%rsp),%zmm8
	vmovdqu64	0(%rsp,%rbx,1),%zmm1
	vextracti32x4	$2,%zmm5,%xmm2
	vshufi64x2	$0,%zmm2,%zmm2,%zmm2


	vbroadcastf64x2	16(%rdi),%zmm31
	vmovdqu64	64(%rsp,%rbx,1),%zmm18
	vmovdqa64	1088(%rsp),%zmm22
	vpxorq	%zmm30,%zmm0,%zmm0
	vpxorq	%zmm30,%zmm3,%zmm3
	vpxorq	%zmm30,%zmm4,%zmm4
	vpxorq	%zmm30,%zmm5,%zmm5
	vbroadcastf64x2	32(%rdi),%zmm30


.byte	98,115,61,72,68,241,17
.byte	98,243,61,72,68,249,0
.byte	98,115,61,72,68,209,1
.byte	98,115,61,72,68,217,16
	vmovdqu64	128(%rsp,%rbx,1),%zmm1
	vmovdqa64	1152(%rsp),%zmm8
.byte	98,146,125,72,220,199
.byte	98,146,101,72,220,223
.byte	98,146,93,72,220,231
.byte	98,146,85,72,220,239
	vbroadcastf64x2	48(%rdi),%zmm31


.byte	98,51,77,64,68,250,16
.byte	98,163,77,64,68,194,1
.byte	98,51,77,64,68,226,17
.byte	98,51,77,64,68,234,0
	vmovdqu64	192(%rsp,%rbx,1),%zmm18
	vmovdqa64	1216(%rsp),%zmm22
.byte	98,146,125,72,220,198
.byte	98,146,101,72,220,222
.byte	98,146,93,72,220,230
.byte	98,146,85,72,220,238
	vbroadcastf64x2	64(%rdi),%zmm30


.byte	98,227,61,72,68,225,16
.byte	98,227,61,72,68,233,1
.byte	98,227,61,72,68,201,17
.byte	98,227,61,72,68,217,0
.byte	98,146,125,72,220,199
.byte	98,146,101,72,220,223
.byte	98,146,93,72,220,231
.byte	98,146,85,72,220,239
	vbroadcastf64x2	80(%rdi),%zmm31


	vpternlogq	$0x96,%zmm17,%zmm12,%zmm14
	vpternlogq	$0x96,%zmm19,%zmm13,%zmm7
	vpternlogq	$0x96,%zmm21,%zmm16,%zmm11
	vpternlogq	$0x96,%zmm20,%zmm15,%zmm10
.byte	98,146,125,72,220,198
.byte	98,146,101,72,220,222
.byte	98,146,93,72,220,230
.byte	98,146,85,72,220,238
	vbroadcastf64x2	96(%rdi),%zmm30
	vmovdqu8	0(%rcx,%rax,1),%zmm17
	vmovdqu8	64(%rcx,%rax,1),%zmm19
	vmovdqu8	128(%rcx,%rax,1),%zmm20
	vmovdqu8	192(%rcx,%rax,1),%zmm21{%k1}{z}
.byte	98,146,125,72,220,199
.byte	98,146,101,72,220,223
.byte	98,146,93,72,220,231
.byte	98,146,85,72,220,239
	vbroadcastf64x2	112(%rdi),%zmm31


.byte	98,51,77,64,68,250,16
.byte	98,163,77,64,68,194,1
.byte	98,51,77,64,68,226,17
.byte	98,51,77,64,68,234,0
.byte	98,146,125,72,220,198
.byte	98,146,101,72,220,222
.byte	98,146,93,72,220,230
.byte	98,146,85,72,220,238
	vbroadcastf64x2	128(%rdi),%zmm30
	vpternlogq	$0x96,%zmm16,%zmm11,%zmm10
	vpternlogq	$0x96,%zmm12,%zmm14,%zmm24
	vpternlogq	$0x96,%zmm13,%zmm7,%zmm25
	vpternlogq	$0x96,%zmm15,%zmm10,%zmm26
.byte	98,146,125,72,220,199
.byte	98,146,101,72,220,223
.byte	98,146,93,72,220,231
.byte	98,146,85,72,220,239
	vbroadcastf64x2	144(%rdi),%zmm31
.byte	98,146,125,72,220,198
.byte	98,146,101,72,220,222
.byte	98,146,93,72,220,230
.byte	98,146,85,72,220,238
	vbroadcastf64x2	160(%rdi),%zmm30
.byte	98,146,125,72,220,199
.byte	98,146,101,72,220,223
.byte	98,146,93,72,220,231
.byte	98,146,85,72,220,239
.byte	98,146,125,72,221,198
.byte	98,146,101,72,221,222
.byte	98,146,93,72,221,230
.byte	98,146,85,72,221,238
	vpxorq	%zmm17,%zmm0,%zmm0
	vpxorq	%zmm19,%zmm3,%zmm3
	vpxorq	%zmm20,%zmm4,%zmm4
	vpxorq	%zmm21,%zmm5,%zmm5
	vextracti32x4	$2,%zmm5,%xmm11
	movq	%r9,%r10
	vmovdqu8	%zmm0,0(%r10,%rax,1)
	vmovdqu8	%zmm3,64(%r10,%rax,1)
	vmovdqu8	%zmm4,128(%r10,%rax,1)
	vmovdqu8	%zmm5,192(%r10,%rax,1){%k1}
	vmovdqu8	%zmm5,%zmm5{%k1}{z}
	vpshufb	%zmm29,%zmm0,%zmm17
	vpshufb	%zmm29,%zmm3,%zmm19
	vpshufb	%zmm29,%zmm4,%zmm20
	vpshufb	%zmm29,%zmm5,%zmm21
	vextracti32x4	$2,%zmm21,%xmm7
	leaq	80(%rsi),%r10
	subq	$16 * (15 - 1),%r8


	cmpq	$16,%r8
	jl	.L_small_initial_partial_block_henbgxejEhFgymC





	subq	$16,%r8
	movl	$0,(%rdx)
	vmovdqu64	16(%r10),%zmm1
.byte	98,243,117,64,68,193,17
.byte	98,243,117,64,68,217,0
.byte	98,243,117,64,68,225,1
.byte	98,243,117,64,68,233,16
	vmovdqu64	80(%r10),%zmm1
.byte	98,115,101,64,68,193,17
.byte	98,227,101,64,68,241,0
.byte	98,99,101,64,68,241,1
.byte	98,99,101,64,68,249,16
	vmovdqu64	144(%r10),%zmm1
.byte	98,227,93,64,68,201,17
.byte	98,227,93,64,68,217,0
	vpternlogq	$0x96,%zmm0,%zmm17,%zmm8
	vpternlogq	$0x96,%zmm3,%zmm19,%zmm22
.byte	98,227,93,64,68,201,1
.byte	98,227,93,64,68,217,16
	vpternlogq	$0x96,%zmm4,%zmm17,%zmm30
	vpternlogq	$0x96,%zmm5,%zmm19,%zmm31
	vmovdqu64	208(%r10),%ymm1
	vinserti64x2	$2,240(%r10),%zmm1,%zmm1
.byte	98,243,85,64,68,225,1
.byte	98,243,85,64,68,233,16
.byte	98,243,85,64,68,193,17
.byte	98,243,85,64,68,217,0

	vpxorq	%zmm30,%zmm4,%zmm4
	vpternlogq	$0x96,%zmm31,%zmm26,%zmm5
	vpternlogq	$0x96,%zmm8,%zmm24,%zmm0
	vpternlogq	$0x96,%zmm22,%zmm25,%zmm3

	vpxorq	%zmm5,%zmm4,%zmm4
	vpsrldq	$8,%zmm4,%zmm30
	vpslldq	$8,%zmm4,%zmm31
	vpxorq	%zmm30,%zmm0,%zmm0
	vpxorq	%zmm31,%zmm3,%zmm3
	vextracti64x4	$1,%zmm0,%ymm30
	vpxorq	%ymm30,%ymm0,%ymm0
	vextracti32x4	$1,%ymm0,%xmm30
	vpxorq	%xmm30,%xmm0,%xmm0
	vextracti64x4	$1,%zmm3,%ymm31
	vpxorq	%ymm31,%ymm3,%ymm3
	vextracti32x4	$1,%ymm3,%xmm31
	vpxorq	%xmm31,%xmm3,%xmm3
	vmovdqa64	POLY2(%rip),%xmm1


.byte	98,243,117,8,68,227,1
	vpslldq	$8,%xmm4,%xmm4
	vpxorq	%xmm4,%xmm3,%xmm4


.byte	98,243,117,8,68,236,0
	vpsrldq	$4,%xmm5,%xmm5
.byte	98,115,117,8,68,244,16
	vpslldq	$4,%xmm14,%xmm14
	vpternlogq	$0x96,%xmm0,%xmm5,%xmm14

	jmp	.L_small_initial_compute_done_henbgxejEhFgymC
.L_small_initial_partial_block_henbgxejEhFgymC:








	movl	%r8d,(%rdx)
	vmovdqu64	%xmm11,16(%rsi)
	vmovdqu64	32(%r10),%zmm1
.byte	98,243,117,64,68,193,17
.byte	98,243,117,64,68,217,0
.byte	98,243,117,64,68,225,1
.byte	98,243,117,64,68,233,16
	vmovdqu64	96(%r10),%zmm1
.byte	98,115,101,64,68,193,17
.byte	98,227,101,64,68,241,0
.byte	98,99,101,64,68,241,1
.byte	98,99,101,64,68,249,16
	vmovdqu64	160(%r10),%zmm1
.byte	98,227,93,64,68,201,17
.byte	98,227,93,64,68,217,0
	vpternlogq	$0x96,%zmm0,%zmm17,%zmm8
	vpternlogq	$0x96,%zmm3,%zmm19,%zmm22
.byte	98,227,93,64,68,201,1
.byte	98,227,93,64,68,217,16
	vpternlogq	$0x96,%zmm4,%zmm17,%zmm30
	vpternlogq	$0x96,%zmm5,%zmm19,%zmm31
	vmovdqu64	224(%r10),%ymm1
.byte	98,243,85,32,68,225,1
.byte	98,243,85,32,68,233,16
.byte	98,243,85,32,68,193,17
.byte	98,243,85,32,68,217,0

	vpxorq	%zmm30,%zmm4,%zmm4
	vpternlogq	$0x96,%zmm31,%zmm26,%zmm5
	vpternlogq	$0x96,%zmm8,%zmm24,%zmm0
	vpternlogq	$0x96,%zmm22,%zmm25,%zmm3

	vpxorq	%zmm5,%zmm4,%zmm4
	vpsrldq	$8,%zmm4,%zmm30
	vpslldq	$8,%zmm4,%zmm31
	vpxorq	%zmm30,%zmm0,%zmm0
	vpxorq	%zmm31,%zmm3,%zmm3
	vextracti64x4	$1,%zmm0,%ymm30
	vpxorq	%ymm30,%ymm0,%ymm0
	vextracti32x4	$1,%ymm0,%xmm30
	vpxorq	%xmm30,%xmm0,%xmm0
	vextracti64x4	$1,%zmm3,%ymm31
	vpxorq	%ymm31,%ymm3,%ymm3
	vextracti32x4	$1,%ymm3,%xmm31
	vpxorq	%xmm31,%xmm3,%xmm3
	vmovdqa64	POLY2(%rip),%xmm1


.byte	98,243,117,8,68,227,1
	vpslldq	$8,%xmm4,%xmm4
	vpxorq	%xmm4,%xmm3,%xmm4


.byte	98,243,117,8,68,236,0
	vpsrldq	$4,%xmm5,%xmm5
.byte	98,115,117,8,68,244,16
	vpslldq	$4,%xmm14,%xmm14
	vpternlogq	$0x96,%xmm0,%xmm5,%xmm14

.L_small_initial_compute_done_henbgxejEhFgymC:

	orq	%r8,%r8
	je	.L_after_reduction_henbgxejEhFgymC
	vpxorq	%xmm7,%xmm14,%xmm14
.L_after_reduction_henbgxejEhFgymC:
	jmp	.L_last_blocks_done_BdcphecxdpdFEsb
.L_last_num_blocks_is_16_BdcphecxdpdFEsb:
	leaq	byte64_len_to_mask_table(%rip),%r10
	movq	%r8,%r11
	subq	$192,%r11
	kmovq	(%r10,%r11,8),%k1
	cmpl	$240,%r15d
	jae	.L_16_blocks_overflow_BlcvjlyDGzsAttk
	vpaddd	%zmm28,%zmm2,%zmm0
	vpaddd	%zmm27,%zmm0,%zmm3
	vpaddd	%zmm27,%zmm3,%zmm4
	vpaddd	%zmm27,%zmm4,%zmm5
	jmp	.L_16_blocks_ok_BlcvjlyDGzsAttk

.L_16_blocks_overflow_BlcvjlyDGzsAttk:
	vpshufb	%zmm29,%zmm2,%zmm2
	vpaddd	ddq_add_1234(%rip),%zmm2,%zmm0
	vmovdqa64	ddq_add_4444(%rip),%zmm5
	vpaddd	%zmm5,%zmm0,%zmm3
	vpaddd	%zmm5,%zmm3,%zmm4
	vpaddd	%zmm5,%zmm4,%zmm5
	vpshufb	%zmm29,%zmm0,%zmm0
	vpshufb	%zmm29,%zmm3,%zmm3
	vpshufb	%zmm29,%zmm4,%zmm4
	vpshufb	%zmm29,%zmm5,%zmm5
.L_16_blocks_ok_BlcvjlyDGzsAttk:




	vbroadcastf64x2	0(%rdi),%zmm30
	vmovdqa64	1024(%rsp),%zmm8
	vmovdqu64	0(%rsp,%rbx,1),%zmm1
	vextracti32x4	$3,%zmm5,%xmm2
	vshufi64x2	$0,%zmm2,%zmm2,%zmm2


	vbroadcastf64x2	16(%rdi),%zmm31
	vmovdqu64	64(%rsp,%rbx,1),%zmm18
	vmovdqa64	1088(%rsp),%zmm22
	vpxorq	%zmm30,%zmm0,%zmm0
	vpxorq	%zmm30,%zmm3,%zmm3
	vpxorq	%zmm30,%zmm4,%zmm4
	vpxorq	%zmm30,%zmm5,%zmm5
	vbroadcastf64x2	32(%rdi),%zmm30


.byte	98,115,61,72,68,241,17
.byte	98,243,61,72,68,249,0
.byte	98,115,61,72,68,209,1
.byte	98,115,61,72,68,217,16
	vmovdqu64	128(%rsp,%rbx,1),%zmm1
	vmovdqa64	1152(%rsp),%zmm8
.byte	98,146,125,72,220,199
.byte	98,146,101,72,220,223
.byte	98,146,93,72,220,231
.byte	98,146,85,72,220,239
	vbroadcastf64x2	48(%rdi),%zmm31


.byte	98,51,77,64,68,250,16
.byte	98,163,77,64,68,194,1
.byte	98,51,77,64,68,226,17
.byte	98,51,77,64,68,234,0
	vmovdqu64	192(%rsp,%rbx,1),%zmm18
	vmovdqa64	1216(%rsp),%zmm22
.byte	98,146,125,72,220,198
.byte	98,146,101,72,220,222
.byte	98,146,93,72,220,230
.byte	98,146,85,72,220,238
	vbroadcastf64x2	64(%rdi),%zmm30


.byte	98,227,61,72,68,225,16
.byte	98,227,61,72,68,233,1
.byte	98,227,61,72,68,201,17
.byte	98,227,61,72,68,217,0
.byte	98,146,125,72,220,199
.byte	98,146,101,72,220,223
.byte	98,146,93,72,220,231
.byte	98,146,85,72,220,239
	vbroadcastf64x2	80(%rdi),%zmm31


	vpternlogq	$0x96,%zmm17,%zmm12,%zmm14
	vpternlogq	$0x96,%zmm19,%zmm13,%zmm7
	vpternlogq	$0x96,%zmm21,%zmm16,%zmm11
	vpternlogq	$0x96,%zmm20,%zmm15,%zmm10
.byte	98,146,125,72,220,198
.byte	98,146,101,72,220,222
.byte	98,146,93,72,220,230
.byte	98,146,85,72,220,238
	vbroadcastf64x2	96(%rdi),%zmm30
	vmovdqu8	0(%rcx,%rax,1),%zmm17
	vmovdqu8	64(%rcx,%rax,1),%zmm19
	vmovdqu8	128(%rcx,%rax,1),%zmm20
	vmovdqu8	192(%rcx,%rax,1),%zmm21{%k1}{z}
.byte	98,146,125,72,220,199
.byte	98,146,101,72,220,223
.byte	98,146,93,72,220,231
.byte	98,146,85,72,220,239
	vbroadcastf64x2	112(%rdi),%zmm31


.byte	98,51,77,64,68,250,16
.byte	98,163,77,64,68,194,1
.byte	98,51,77,64,68,226,17
.byte	98,51,77,64,68,234,0
.byte	98,146,125,72,220,198
.byte	98,146,101,72,220,222
.byte	98,146,93,72,220,230
.byte	98,146,85,72,220,238
	vbroadcastf64x2	128(%rdi),%zmm30
	vpternlogq	$0x96,%zmm16,%zmm11,%zmm10
	vpternlogq	$0x96,%zmm12,%zmm14,%zmm24
	vpternlogq	$0x96,%zmm13,%zmm7,%zmm25
	vpternlogq	$0x96,%zmm15,%zmm10,%zmm26
.byte	98,146,125,72,220,199
.byte	98,146,101,72,220,223
.byte	98,146,93,72,220,231
.byte	98,146,85,72,220,239
	vbroadcastf64x2	144(%rdi),%zmm31
.byte	98,146,125,72,220,198
.byte	98,146,101,72,220,222
.byte	98,146,93,72,220,230
.byte	98,146,85,72,220,238
	vbroadcastf64x2	160(%rdi),%zmm30
.byte	98,146,125,72,220,199
.byte	98,146,101,72,220,223
.byte	98,146,93,72,220,231
.byte	98,146,85,72,220,239
.byte	98,146,125,72,221,198
.byte	98,146,101,72,221,222
.byte	98,146,93,72,221,230
.byte	98,146,85,72,221,238
	vpxorq	%zmm17,%zmm0,%zmm0
	vpxorq	%zmm19,%zmm3,%zmm3
	vpxorq	%zmm20,%zmm4,%zmm4
	vpxorq	%zmm21,%zmm5,%zmm5
	vextracti32x4	$3,%zmm5,%xmm11
	movq	%r9,%r10
	vmovdqu8	%zmm0,0(%r10,%rax,1)
	vmovdqu8	%zmm3,64(%r10,%rax,1)
	vmovdqu8	%zmm4,128(%r10,%rax,1)
	vmovdqu8	%zmm5,192(%r10,%rax,1){%k1}
	vmovdqu8	%zmm5,%zmm5{%k1}{z}
	vpshufb	%zmm29,%zmm0,%zmm17
	vpshufb	%zmm29,%zmm3,%zmm19
	vpshufb	%zmm29,%zmm4,%zmm20
	vpshufb	%zmm29,%zmm5,%zmm21
	vextracti32x4	$3,%zmm21,%xmm7
	leaq	80(%rsi),%r10
	subq	$16 * (16 - 1),%r8
.L_small_initial_partial_block_aGAffhBljtiFsea:








	movl	%r8d,(%rdx)
	vmovdqu64	%xmm11,16(%rsi)
	vmovdqu64	16(%r10),%zmm1
.byte	98,243,117,64,68,193,17
.byte	98,243,117,64,68,217,0
.byte	98,243,117,64,68,225,1
.byte	98,243,117,64,68,233,16
	vmovdqu64	80(%r10),%zmm1
.byte	98,115,101,64,68,193,17
.byte	98,227,101,64,68,241,0
.byte	98,99,101,64,68,241,1
.byte	98,99,101,64,68,249,16
	vmovdqu64	144(%r10),%zmm1
.byte	98,227,93,64,68,201,17
.byte	98,227,93,64,68,217,0
	vpternlogq	$0x96,%zmm0,%zmm17,%zmm8
	vpternlogq	$0x96,%zmm3,%zmm19,%zmm22
.byte	98,227,93,64,68,201,1
.byte	98,227,93,64,68,217,16
	vpternlogq	$0x96,%zmm4,%zmm17,%zmm30
	vpternlogq	$0x96,%zmm5,%zmm19,%zmm31
	vmovdqu64	208(%r10),%ymm1
	vinserti64x2	$2,240(%r10),%zmm1,%zmm1
.byte	98,243,85,64,68,225,1
.byte	98,243,85,64,68,233,16
.byte	98,243,85,64,68,193,17
.byte	98,243,85,64,68,217,0

	vpxorq	%zmm30,%zmm4,%zmm4
	vpternlogq	$0x96,%zmm31,%zmm26,%zmm5
	vpternlogq	$0x96,%zmm8,%zmm24,%zmm0
	vpternlogq	$0x96,%zmm22,%zmm25,%zmm3

	vpxorq	%zmm5,%zmm4,%zmm4
	vpsrldq	$8,%zmm4,%zmm30
	vpslldq	$8,%zmm4,%zmm31
	vpxorq	%zmm30,%zmm0,%zmm0
	vpxorq	%zmm31,%zmm3,%zmm3
	vextracti64x4	$1,%zmm0,%ymm30
	vpxorq	%ymm30,%ymm0,%ymm0
	vextracti32x4	$1,%ymm0,%xmm30
	vpxorq	%xmm30,%xmm0,%xmm0
	vextracti64x4	$1,%zmm3,%ymm31
	vpxorq	%ymm31,%ymm3,%ymm3
	vextracti32x4	$1,%ymm3,%xmm31
	vpxorq	%xmm31,%xmm3,%xmm3
	vmovdqa64	POLY2(%rip),%xmm1


.byte	98,243,117,8,68,227,1
	vpslldq	$8,%xmm4,%xmm4
	vpxorq	%xmm4,%xmm3,%xmm4


.byte	98,243,117,8,68,236,0
	vpsrldq	$4,%xmm5,%xmm5
.byte	98,115,117,8,68,244,16
	vpslldq	$4,%xmm14,%xmm14
	vpternlogq	$0x96,%xmm0,%xmm5,%xmm14

.L_small_initial_compute_done_aGAffhBljtiFsea:
	vpxorq	%xmm7,%xmm14,%xmm14
.L_after_reduction_aGAffhBljtiFsea:
	jmp	.L_last_blocks_done_BdcphecxdpdFEsb
.L_last_num_blocks_is_0_BdcphecxdpdFEsb:
	vmovdqa64	1024(%rsp),%zmm13
	vmovdqu64	0(%rsp,%rbx,1),%zmm12
.byte	98,211,21,72,68,196,17
.byte	98,211,21,72,68,220,0
.byte	98,211,21,72,68,228,1
.byte	98,211,21,72,68,236,16
	vmovdqa64	1088(%rsp),%zmm13
	vmovdqu64	64(%rsp,%rbx,1),%zmm12
.byte	98,211,21,72,68,244,17
.byte	98,211,21,72,68,252,0
.byte	98,83,21,72,68,212,1
.byte	98,83,21,72,68,220,16
	vpternlogq	$0x96,%zmm10,%zmm4,%zmm26
	vpternlogq	$0x96,%zmm6,%zmm0,%zmm24
	vpternlogq	$0x96,%zmm7,%zmm3,%zmm25
	vpternlogq	$0x96,%zmm11,%zmm5,%zmm26
	vmovdqa64	1152(%rsp),%zmm13
	vmovdqu64	128(%rsp,%rbx,1),%zmm12
.byte	98,211,21,72,68,196,17
.byte	98,211,21,72,68,220,0
.byte	98,211,21,72,68,228,1
.byte	98,211,21,72,68,236,16
	vmovdqa64	1216(%rsp),%zmm13
	vmovdqu64	192(%rsp,%rbx,1),%zmm12
.byte	98,211,21,72,68,244,17
.byte	98,211,21,72,68,252,0
.byte	98,83,21,72,68,212,1
.byte	98,83,21,72,68,220,16

	vpternlogq	$0x96,%zmm10,%zmm4,%zmm26
	vpternlogq	$0x96,%zmm6,%zmm0,%zmm24
	vpternlogq	$0x96,%zmm7,%zmm3,%zmm25
	vpternlogq	$0x96,%zmm11,%zmm5,%zmm26

	vpsrldq	$8,%zmm26,%zmm0
	vpslldq	$8,%zmm26,%zmm3
	vpxorq	%zmm0,%zmm24,%zmm24
	vpxorq	%zmm3,%zmm25,%zmm25
	vextracti64x4	$1,%zmm24,%ymm0
	vpxorq	%ymm0,%ymm24,%ymm24
	vextracti32x4	$1,%ymm24,%xmm0
	vpxorq	%xmm0,%xmm24,%xmm24
	vextracti64x4	$1,%zmm25,%ymm3
	vpxorq	%ymm3,%ymm25,%ymm25
	vextracti32x4	$1,%ymm25,%xmm3
	vpxorq	%xmm3,%xmm25,%xmm25
	vmovdqa64	POLY2(%rip),%xmm4


.byte	98,147,93,8,68,193,1
	vpslldq	$8,%xmm0,%xmm0
	vpxorq	%xmm0,%xmm25,%xmm0


.byte	98,243,93,8,68,216,0
	vpsrldq	$4,%xmm3,%xmm3
.byte	98,115,93,8,68,240,16
	vpslldq	$4,%xmm14,%xmm14
	vpternlogq	$0x96,%xmm24,%xmm3,%xmm14

.L_last_blocks_done_BdcphecxdpdFEsb:
	vpshufb	%xmm29,%xmm2,%xmm2
	jmp	.L_ghash_done_pzwgkGgbplFqzaB
.L_encrypt_32_blocks_pzwgkGgbplFqzaB:
	cmpb	$240,%r15b
	jae	.L_16_blocks_overflow_zuczDhwqwDAmzjf
	vpaddd	%zmm28,%zmm2,%zmm0
	vpaddd	%zmm27,%zmm0,%zmm3
	vpaddd	%zmm27,%zmm3,%zmm4
	vpaddd	%zmm27,%zmm4,%zmm5
	jmp	.L_16_blocks_ok_zuczDhwqwDAmzjf
.L_16_blocks_overflow_zuczDhwqwDAmzjf:
	vpshufb	%zmm29,%zmm2,%zmm2
	vmovdqa64	ddq_add_4444(%rip),%zmm5
	vpaddd	ddq_add_1234(%rip),%zmm2,%zmm0
	vpaddd	%zmm5,%zmm0,%zmm3
	vpaddd	%zmm5,%zmm3,%zmm4
	vpaddd	%zmm5,%zmm4,%zmm5
	vpshufb	%zmm29,%zmm0,%zmm0
	vpshufb	%zmm29,%zmm3,%zmm3
	vpshufb	%zmm29,%zmm4,%zmm4
	vpshufb	%zmm29,%zmm5,%zmm5
.L_16_blocks_ok_zuczDhwqwDAmzjf:
	vbroadcastf64x2	0(%rdi),%zmm30
	vpxorq	768(%rsp),%zmm14,%zmm8
	vmovdqu64	0(%rsp),%zmm1




	vshufi64x2	$255,%zmm5,%zmm5,%zmm2
	addb	$16,%r15b


	vbroadcastf64x2	16(%rdi),%zmm31
	vmovdqu64	64(%rsp),%zmm18
	vmovdqa64	832(%rsp),%zmm22







	vpxorq	%zmm30,%zmm0,%zmm0
	vpxorq	%zmm30,%zmm3,%zmm3
	vpxorq	%zmm30,%zmm4,%zmm4
	vpxorq	%zmm30,%zmm5,%zmm5
	vbroadcastf64x2	32(%rdi),%zmm30



.byte	98,243,61,72,68,241,17
.byte	98,243,61,72,68,249,0
.byte	98,115,61,72,68,209,1
.byte	98,115,61,72,68,217,16
	vmovdqu64	128(%rsp),%zmm1
	vmovdqa64	896(%rsp),%zmm8



.byte	98,146,125,72,220,199
.byte	98,146,101,72,220,223
.byte	98,146,93,72,220,231
.byte	98,146,85,72,220,239
	vbroadcastf64x2	48(%rdi),%zmm31



.byte	98,51,77,64,68,250,16
.byte	98,163,77,64,68,194,1
.byte	98,51,77,64,68,226,17
.byte	98,51,77,64,68,234,0
	vmovdqu64	192(%rsp),%zmm18
	vmovdqa64	960(%rsp),%zmm22



.byte	98,146,125,72,220,198
.byte	98,146,101,72,220,222
.byte	98,146,93,72,220,230
.byte	98,146,85,72,220,238
	vbroadcastf64x2	64(%rdi),%zmm30



.byte	98,227,61,72,68,225,16
.byte	98,227,61,72,68,233,1
.byte	98,227,61,72,68,201,17
.byte	98,227,61,72,68,217,0


.byte	98,146,125,72,220,199
.byte	98,146,101,72,220,223
.byte	98,146,93,72,220,231
.byte	98,146,85,72,220,239
	vbroadcastf64x2	80(%rdi),%zmm31



	vpternlogq	$0x96,%zmm17,%zmm12,%zmm6
	vpternlogq	$0x96,%zmm19,%zmm13,%zmm7
	vpternlogq	$0x96,%zmm21,%zmm16,%zmm11
	vpternlogq	$0x96,%zmm20,%zmm15,%zmm10



.byte	98,146,125,72,220,198
.byte	98,146,101,72,220,222
.byte	98,146,93,72,220,230
.byte	98,146,85,72,220,238
	vbroadcastf64x2	96(%rdi),%zmm30



	vmovdqu8	0(%rcx,%rax,1),%zmm17
	vmovdqu8	64(%rcx,%rax,1),%zmm19
	vmovdqu8	128(%rcx,%rax,1),%zmm20
	vmovdqu8	192(%rcx,%rax,1),%zmm21



.byte	98,146,125,72,220,199
.byte	98,146,101,72,220,223
.byte	98,146,93,72,220,231
.byte	98,146,85,72,220,239
	vbroadcastf64x2	112(%rdi),%zmm31



.byte	98,51,77,64,68,250,16
.byte	98,163,77,64,68,194,1
.byte	98,51,77,64,68,226,17
.byte	98,51,77,64,68,234,0


.byte	98,146,125,72,220,198
.byte	98,146,101,72,220,222
.byte	98,146,93,72,220,230
.byte	98,146,85,72,220,238
	vbroadcastf64x2	128(%rdi),%zmm30
	vpternlogq	$0x96,%zmm16,%zmm11,%zmm10
	vpxorq	%zmm15,%zmm10,%zmm26
	vpxorq	%zmm12,%zmm6,%zmm24
	vpxorq	%zmm13,%zmm7,%zmm25
.byte	98,146,125,72,220,199
.byte	98,146,101,72,220,223
.byte	98,146,93,72,220,231
.byte	98,146,85,72,220,239
	vbroadcastf64x2	144(%rdi),%zmm31
.byte	98,146,125,72,220,198
.byte	98,146,101,72,220,222
.byte	98,146,93,72,220,230
.byte	98,146,85,72,220,238
	vbroadcastf64x2	160(%rdi),%zmm30
.byte	98,146,125,72,220,199
.byte	98,146,101,72,220,223
.byte	98,146,93,72,220,231
.byte	98,146,85,72,220,239
.byte	98,146,125,72,221,198
.byte	98,146,101,72,221,222
.byte	98,146,93,72,221,230
.byte	98,146,85,72,221,238



	vpxorq	%zmm17,%zmm0,%zmm0
	vpxorq	%zmm19,%zmm3,%zmm3
	vpxorq	%zmm20,%zmm4,%zmm4
	vpxorq	%zmm21,%zmm5,%zmm5



	movq	%r9,%r10
	vmovdqu8	%zmm0,0(%r10,%rax,1)
	vmovdqu8	%zmm3,64(%r10,%rax,1)
	vmovdqu8	%zmm4,128(%r10,%rax,1)
	vmovdqu8	%zmm5,192(%r10,%rax,1)
	vpshufb	%zmm29,%zmm0,%zmm0
	vpshufb	%zmm29,%zmm3,%zmm3
	vpshufb	%zmm29,%zmm4,%zmm4
	vpshufb	%zmm29,%zmm5,%zmm5
	vmovdqa64	%zmm0,1280(%rsp)
	vmovdqa64	%zmm3,1344(%rsp)
	vmovdqa64	%zmm4,1408(%rsp)
	vmovdqa64	%zmm5,1472(%rsp)
	cmpb	$240,%r15b
	jae	.L_16_blocks_overflow_CeGBtrGsogoqpyb
	vpaddd	%zmm28,%zmm2,%zmm0
	vpaddd	%zmm27,%zmm0,%zmm3
	vpaddd	%zmm27,%zmm3,%zmm4
	vpaddd	%zmm27,%zmm4,%zmm5
	jmp	.L_16_blocks_ok_CeGBtrGsogoqpyb
.L_16_blocks_overflow_CeGBtrGsogoqpyb:
	vpshufb	%zmm29,%zmm2,%zmm2
	vmovdqa64	ddq_add_4444(%rip),%zmm5
	vpaddd	ddq_add_1234(%rip),%zmm2,%zmm0
	vpaddd	%zmm5,%zmm0,%zmm3
	vpaddd	%zmm5,%zmm3,%zmm4
	vpaddd	%zmm5,%zmm4,%zmm5
	vpshufb	%zmm29,%zmm0,%zmm0
	vpshufb	%zmm29,%zmm3,%zmm3
	vpshufb	%zmm29,%zmm4,%zmm4
	vpshufb	%zmm29,%zmm5,%zmm5
.L_16_blocks_ok_CeGBtrGsogoqpyb:
	vbroadcastf64x2	0(%rdi),%zmm30
	vmovdqa64	1024(%rsp),%zmm8
	vmovdqu64	256(%rsp),%zmm1




	vshufi64x2	$255,%zmm5,%zmm5,%zmm2
	addb	$16,%r15b


	vbroadcastf64x2	16(%rdi),%zmm31
	vmovdqu64	320(%rsp),%zmm18
	vmovdqa64	1088(%rsp),%zmm22







	vpxorq	%zmm30,%zmm0,%zmm0
	vpxorq	%zmm30,%zmm3,%zmm3
	vpxorq	%zmm30,%zmm4,%zmm4
	vpxorq	%zmm30,%zmm5,%zmm5
	vbroadcastf64x2	32(%rdi),%zmm30



.byte	98,243,61,72,68,241,17
.byte	98,243,61,72,68,249,0
.byte	98,115,61,72,68,209,1
.byte	98,115,61,72,68,217,16
	vmovdqu64	384(%rsp),%zmm1
	vmovdqa64	1152(%rsp),%zmm8



.byte	98,146,125,72,220,199
.byte	98,146,101,72,220,223
.byte	98,146,93,72,220,231
.byte	98,146,85,72,220,239
	vbroadcastf64x2	48(%rdi),%zmm31



.byte	98,51,77,64,68,250,16
.byte	98,163,77,64,68,194,1
.byte	98,51,77,64,68,226,17
.byte	98,51,77,64,68,234,0
	vmovdqu64	448(%rsp),%zmm18
	vmovdqa64	1216(%rsp),%zmm22



.byte	98,146,125,72,220,198
.byte	98,146,101,72,220,222
.byte	98,146,93,72,220,230
.byte	98,146,85,72,220,238
	vbroadcastf64x2	64(%rdi),%zmm30



.byte	98,227,61,72,68,225,16
.byte	98,227,61,72,68,233,1
.byte	98,227,61,72,68,201,17
.byte	98,227,61,72,68,217,0


.byte	98,146,125,72,220,199
.byte	98,146,101,72,220,223
.byte	98,146,93,72,220,231
.byte	98,146,85,72,220,239
	vbroadcastf64x2	80(%rdi),%zmm31



	vpternlogq	$0x96,%zmm17,%zmm12,%zmm6
	vpternlogq	$0x96,%zmm19,%zmm13,%zmm7
	vpternlogq	$0x96,%zmm21,%zmm16,%zmm11
	vpternlogq	$0x96,%zmm20,%zmm15,%zmm10



.byte	98,146,125,72,220,198
.byte	98,146,101,72,220,222
.byte	98,146,93,72,220,230
.byte	98,146,85,72,220,238
	vbroadcastf64x2	96(%rdi),%zmm30



	vmovdqu8	256(%rcx,%rax,1),%zmm17
	vmovdqu8	320(%rcx,%rax,1),%zmm19
	vmovdqu8	384(%rcx,%rax,1),%zmm20
	vmovdqu8	448(%rcx,%rax,1),%zmm21



.byte	98,146,125,72,220,199
.byte	98,146,101,72,220,223
.byte	98,146,93,72,220,231
.byte	98,146,85,72,220,239
	vbroadcastf64x2	112(%rdi),%zmm31



.byte	98,51,77,64,68,250,16
.byte	98,163,77,64,68,194,1
.byte	98,51,77,64,68,226,17
.byte	98,51,77,64,68,234,0


.byte	98,146,125,72,220,198
.byte	98,146,101,72,220,222
.byte	98,146,93,72,220,230
.byte	98,146,85,72,220,238
	vbroadcastf64x2	128(%rdi),%zmm30
	vpternlogq	$0x96,%zmm16,%zmm11,%zmm10
	vpternlogq	$0x96,%zmm15,%zmm10,%zmm26
	vpternlogq	$0x96,%zmm12,%zmm6,%zmm24
	vpternlogq	$0x96,%zmm13,%zmm7,%zmm25
.byte	98,146,125,72,220,199
.byte	98,146,101,72,220,223
.byte	98,146,93,72,220,231
.byte	98,146,85,72,220,239
	vbroadcastf64x2	144(%rdi),%zmm31
.byte	98,146,125,72,220,198
.byte	98,146,101,72,220,222
.byte	98,146,93,72,220,230
.byte	98,146,85,72,220,238
	vbroadcastf64x2	160(%rdi),%zmm30
.byte	98,146,125,72,220,199
.byte	98,146,101,72,220,223
.byte	98,146,93,72,220,231
.byte	98,146,85,72,220,239
.byte	98,146,125,72,221,198
.byte	98,146,101,72,221,222
.byte	98,146,93,72,221,230
.byte	98,146,85,72,221,238



	vpxorq	%zmm17,%zmm0,%zmm0
	vpxorq	%zmm19,%zmm3,%zmm3
	vpxorq	%zmm20,%zmm4,%zmm4
	vpxorq	%zmm21,%zmm5,%zmm5



	movq	%r9,%r10
	vmovdqu8	%zmm0,256(%r10,%rax,1)
	vmovdqu8	%zmm3,320(%r10,%rax,1)
	vmovdqu8	%zmm4,384(%r10,%rax,1)
	vmovdqu8	%zmm5,448(%r10,%rax,1)
	vpshufb	%zmm29,%zmm0,%zmm0
	vpshufb	%zmm29,%zmm3,%zmm3
	vpshufb	%zmm29,%zmm4,%zmm4
	vpshufb	%zmm29,%zmm5,%zmm5
	vmovdqa64	%zmm0,768(%rsp)
	vmovdqa64	%zmm3,832(%rsp)
	vmovdqa64	%zmm4,896(%rsp)
	vmovdqa64	%zmm5,960(%rsp)
	vmovdqa64	1280(%rsp),%zmm13
	vmovdqu64	512(%rsp),%zmm12
.byte	98,211,21,72,68,196,17
.byte	98,211,21,72,68,220,0
.byte	98,211,21,72,68,228,1
.byte	98,211,21,72,68,236,16
	vmovdqa64	1344(%rsp),%zmm13
	vmovdqu64	576(%rsp),%zmm12
.byte	98,211,21,72,68,244,17
.byte	98,211,21,72,68,252,0
.byte	98,83,21,72,68,212,1
.byte	98,83,21,72,68,220,16
	vpternlogq	$0x96,%zmm10,%zmm4,%zmm26
	vpternlogq	$0x96,%zmm6,%zmm0,%zmm24
	vpternlogq	$0x96,%zmm7,%zmm3,%zmm25
	vpternlogq	$0x96,%zmm11,%zmm5,%zmm26
	vmovdqa64	1408(%rsp),%zmm13
	vmovdqu64	640(%rsp),%zmm12
.byte	98,211,21,72,68,196,17
.byte	98,211,21,72,68,220,0
.byte	98,211,21,72,68,228,1
.byte	98,211,21,72,68,236,16
	vmovdqa64	1472(%rsp),%zmm13
	vmovdqu64	704(%rsp),%zmm12
.byte	98,211,21,72,68,244,17
.byte	98,211,21,72,68,252,0
.byte	98,83,21,72,68,212,1
.byte	98,83,21,72,68,220,16

	vpternlogq	$0x96,%zmm10,%zmm4,%zmm26
	vpternlogq	$0x96,%zmm6,%zmm0,%zmm24
	vpternlogq	$0x96,%zmm7,%zmm3,%zmm25
	vpternlogq	$0x96,%zmm11,%zmm5,%zmm26

	vpsrldq	$8,%zmm26,%zmm0
	vpslldq	$8,%zmm26,%zmm3
	vpxorq	%zmm0,%zmm24,%zmm24
	vpxorq	%zmm3,%zmm25,%zmm25
	vextracti64x4	$1,%zmm24,%ymm0
	vpxorq	%ymm0,%ymm24,%ymm24
	vextracti32x4	$1,%ymm24,%xmm0
	vpxorq	%xmm0,%xmm24,%xmm24
	vextracti64x4	$1,%zmm25,%ymm3
	vpxorq	%ymm3,%ymm25,%ymm25
	vextracti32x4	$1,%ymm25,%xmm3
	vpxorq	%xmm3,%xmm25,%xmm25
	vmovdqa64	POLY2(%rip),%xmm4


.byte	98,147,93,8,68,193,1
	vpslldq	$8,%xmm0,%xmm0
	vpxorq	%xmm0,%xmm25,%xmm0


.byte	98,243,93,8,68,216,0
	vpsrldq	$4,%xmm3,%xmm3
.byte	98,115,93,8,68,240,16
	vpslldq	$4,%xmm14,%xmm14
	vpternlogq	$0x96,%xmm24,%xmm3,%xmm14

	subq	$512,%r8
	addq	$512,%rax
	movl	%r8d,%r10d
	andl	$~15,%r10d
	movl	$512,%ebx
	subl	%r10d,%ebx
	movl	%r8d,%r10d
	addl	$15,%r10d
	shrl	$4,%r10d
	je	.L_last_num_blocks_is_0_CfrpfvcjvvrcbGa

	cmpl	$8,%r10d
	je	.L_last_num_blocks_is_8_CfrpfvcjvvrcbGa
	jb	.L_last_num_blocks_is_7_1_CfrpfvcjvvrcbGa


	cmpl	$12,%r10d
	je	.L_last_num_blocks_is_12_CfrpfvcjvvrcbGa
	jb	.L_last_num_blocks_is_11_9_CfrpfvcjvvrcbGa


	cmpl	$15,%r10d
	je	.L_last_num_blocks_is_15_CfrpfvcjvvrcbGa
	ja	.L_last_num_blocks_is_16_CfrpfvcjvvrcbGa
	cmpl	$14,%r10d
	je	.L_last_num_blocks_is_14_CfrpfvcjvvrcbGa
	jmp	.L_last_num_blocks_is_13_CfrpfvcjvvrcbGa

.L_last_num_blocks_is_11_9_CfrpfvcjvvrcbGa:

	cmpl	$10,%r10d
	je	.L_last_num_blocks_is_10_CfrpfvcjvvrcbGa
	ja	.L_last_num_blocks_is_11_CfrpfvcjvvrcbGa
	jmp	.L_last_num_blocks_is_9_CfrpfvcjvvrcbGa

.L_last_num_blocks_is_7_1_CfrpfvcjvvrcbGa:
	cmpl	$4,%r10d
	je	.L_last_num_blocks_is_4_CfrpfvcjvvrcbGa
	jb	.L_last_num_blocks_is_3_1_CfrpfvcjvvrcbGa

	cmpl	$6,%r10d
	ja	.L_last_num_blocks_is_7_CfrpfvcjvvrcbGa
	je	.L_last_num_blocks_is_6_CfrpfvcjvvrcbGa
	jmp	.L_last_num_blocks_is_5_CfrpfvcjvvrcbGa

.L_last_num_blocks_is_3_1_CfrpfvcjvvrcbGa:

	cmpl	$2,%r10d
	ja	.L_last_num_blocks_is_3_CfrpfvcjvvrcbGa
	je	.L_last_num_blocks_is_2_CfrpfvcjvvrcbGa
.L_last_num_blocks_is_1_CfrpfvcjvvrcbGa:
	leaq	byte64_len_to_mask_table(%rip),%r10
	movq	%r8,%r11
	kmovq	(%r10,%r11,8),%k1
	cmpl	$255,%r15d
	jae	.L_16_blocks_overflow_dbajrbEcjsFpceD
	vpaddd	%xmm28,%xmm2,%xmm0
	jmp	.L_16_blocks_ok_dbajrbEcjsFpceD

.L_16_blocks_overflow_dbajrbEcjsFpceD:
	vpshufb	%zmm29,%zmm2,%zmm2
	vpaddd	ddq_add_1234(%rip),%zmm2,%zmm0
	vpshufb	%xmm29,%xmm0,%xmm0
.L_16_blocks_ok_dbajrbEcjsFpceD:




	vbroadcastf64x2	0(%rdi),%zmm30
	vpxorq	768(%rsp),%zmm14,%zmm8
	vmovdqu64	0(%rsp,%rbx,1),%zmm1
	vextracti32x4	$0,%zmm0,%xmm2
	vshufi64x2	$0,%zmm2,%zmm2,%zmm2


	vbroadcastf64x2	16(%rdi),%zmm31
	vmovdqu64	64(%rsp,%rbx,1),%zmm18
	vmovdqa64	832(%rsp),%zmm22
	vpxorq	%xmm30,%xmm0,%xmm0
	vbroadcastf64x2	32(%rdi),%zmm30


.byte	98,115,61,72,68,241,17
.byte	98,243,61,72,68,249,0
.byte	98,115,61,72,68,209,1
.byte	98,115,61,72,68,217,16
	vmovdqu64	128(%rsp,%rbx,1),%zmm1
	vmovdqa64	896(%rsp),%zmm8
.byte	98,146,125,8,220,199
	vbroadcastf64x2	48(%rdi),%zmm31


.byte	98,51,77,64,68,250,16
.byte	98,163,77,64,68,194,1
.byte	98,51,77,64,68,226,17
.byte	98,51,77,64,68,234,0
	vmovdqu64	192(%rsp,%rbx,1),%zmm18
	vmovdqa64	960(%rsp),%zmm22
.byte	98,146,125,8,220,198
	vbroadcastf64x2	64(%rdi),%zmm30


.byte	98,227,61,72,68,225,16
.byte	98,227,61,72,68,233,1
.byte	98,227,61,72,68,201,17
.byte	98,227,61,72,68,217,0
.byte	98,146,125,8,220,199
	vbroadcastf64x2	80(%rdi),%zmm31


	vpternlogq	$0x96,%zmm17,%zmm12,%zmm14
	vpternlogq	$0x96,%zmm19,%zmm13,%zmm7
	vpternlogq	$0x96,%zmm21,%zmm16,%zmm11
	vpternlogq	$0x96,%zmm20,%zmm15,%zmm10
.byte	98,146,125,8,220,198
	vbroadcastf64x2	96(%rdi),%zmm30
	vmovdqu8	0(%rcx,%rax,1),%xmm17{%k1}{z}
.byte	98,146,125,8,220,199
	vbroadcastf64x2	112(%rdi),%zmm31


.byte	98,51,77,64,68,250,16
.byte	98,163,77,64,68,194,1
.byte	98,51,77,64,68,226,17
.byte	98,51,77,64,68,234,0
.byte	98,146,125,8,220,198
	vbroadcastf64x2	128(%rdi),%zmm30
	vpternlogq	$0x96,%zmm16,%zmm11,%zmm10
	vpxorq	%zmm12,%zmm14,%zmm24
	vpxorq	%zmm13,%zmm7,%zmm25
	vpxorq	%zmm15,%zmm10,%zmm26
.byte	98,146,125,8,220,199
	vbroadcastf64x2	144(%rdi),%zmm31
.byte	98,146,125,8,220,198
	vbroadcastf64x2	160(%rdi),%zmm30
.byte	98,146,125,8,220,199
.byte	98,146,125,8,221,198
	vpxorq	%xmm17,%xmm0,%xmm0
	vextracti32x4	$0,%zmm0,%xmm11
	movq	%r9,%r10
	vmovdqu8	%xmm0,0(%r10,%rax,1){%k1}
	vmovdqu8	%zmm0,%zmm0{%k1}{z}
	vpshufb	%xmm29,%xmm0,%xmm17
	vextracti32x4	$0,%zmm17,%xmm7
	leaq	80(%rsi),%r10


	cmpq	$16,%r8
	jl	.L_small_initial_partial_block_qFrfFusofbDaigi





	subq	$16,%r8
	movl	$0,(%rdx)
	vmovdqu64	240(%r10),%xmm1
.byte	98,243,117,0,68,225,1
.byte	98,243,117,0,68,233,16
.byte	98,243,117,0,68,193,17
.byte	98,243,117,0,68,217,0
	vpxorq	%zmm26,%zmm4,%zmm4
	vpxorq	%zmm24,%zmm0,%zmm0
	vpxorq	%zmm25,%zmm3,%zmm3

	vpxorq	%zmm5,%zmm4,%zmm4
	vpsrldq	$8,%zmm4,%zmm30
	vpslldq	$8,%zmm4,%zmm31
	vpxorq	%zmm30,%zmm0,%zmm0
	vpxorq	%zmm31,%zmm3,%zmm3
	vextracti64x4	$1,%zmm0,%ymm30
	vpxorq	%ymm30,%ymm0,%ymm0
	vextracti32x4	$1,%ymm0,%xmm30
	vpxorq	%xmm30,%xmm0,%xmm0
	vextracti64x4	$1,%zmm3,%ymm31
	vpxorq	%ymm31,%ymm3,%ymm3
	vextracti32x4	$1,%ymm3,%xmm31
	vpxorq	%xmm31,%xmm3,%xmm3
	vmovdqa64	POLY2(%rip),%xmm1


.byte	98,243,117,8,68,227,1
	vpslldq	$8,%xmm4,%xmm4
	vpxorq	%xmm4,%xmm3,%xmm4


.byte	98,243,117,8,68,236,0
	vpsrldq	$4,%xmm5,%xmm5
.byte	98,115,117,8,68,244,16
	vpslldq	$4,%xmm14,%xmm14
	vpternlogq	$0x96,%xmm0,%xmm5,%xmm14

	jmp	.L_small_initial_compute_done_qFrfFusofbDaigi
.L_small_initial_partial_block_qFrfFusofbDaigi:








	movl	%r8d,(%rdx)
	vmovdqu64	%xmm11,16(%rsi)


	vpsrldq	$8,%zmm26,%zmm0
	vpslldq	$8,%zmm26,%zmm3
	vpxorq	%zmm0,%zmm24,%zmm24
	vpxorq	%zmm3,%zmm25,%zmm25
	vextracti64x4	$1,%zmm24,%ymm0
	vpxorq	%ymm0,%ymm24,%ymm24
	vextracti32x4	$1,%ymm24,%xmm0
	vpxorq	%xmm0,%xmm24,%xmm24
	vextracti64x4	$1,%zmm25,%ymm3
	vpxorq	%ymm3,%ymm25,%ymm25
	vextracti32x4	$1,%ymm25,%xmm3
	vpxorq	%xmm3,%xmm25,%xmm25
	vmovdqa64	POLY2(%rip),%xmm0


.byte	98,147,125,8,68,217,1
	vpslldq	$8,%xmm3,%xmm3
	vpxorq	%xmm3,%xmm25,%xmm3


.byte	98,243,125,8,68,227,0
	vpsrldq	$4,%xmm4,%xmm4
.byte	98,115,125,8,68,243,16
	vpslldq	$4,%xmm14,%xmm14
	vpternlogq	$0x96,%xmm24,%xmm4,%xmm14












	vpxorq	%xmm7,%xmm14,%xmm14

	jmp	.L_after_reduction_qFrfFusofbDaigi
.L_small_initial_compute_done_qFrfFusofbDaigi:
.L_after_reduction_qFrfFusofbDaigi:
	jmp	.L_last_blocks_done_CfrpfvcjvvrcbGa
.L_last_num_blocks_is_2_CfrpfvcjvvrcbGa:
	leaq	byte64_len_to_mask_table(%rip),%r10
	movq	%r8,%r11
	kmovq	(%r10,%r11,8),%k1
	cmpl	$254,%r15d
	jae	.L_16_blocks_overflow_kgpAeeaoAnozgEF
	vpaddd	%ymm28,%ymm2,%ymm0
	jmp	.L_16_blocks_ok_kgpAeeaoAnozgEF

.L_16_blocks_overflow_kgpAeeaoAnozgEF:
	vpshufb	%zmm29,%zmm2,%zmm2
	vpaddd	ddq_add_1234(%rip),%zmm2,%zmm0
	vpshufb	%ymm29,%ymm0,%ymm0
.L_16_blocks_ok_kgpAeeaoAnozgEF:




	vbroadcastf64x2	0(%rdi),%zmm30
	vpxorq	768(%rsp),%zmm14,%zmm8
	vmovdqu64	0(%rsp,%rbx,1),%zmm1
	vextracti32x4	$1,%zmm0,%xmm2
	vshufi64x2	$0,%zmm2,%zmm2,%zmm2


	vbroadcastf64x2	16(%rdi),%zmm31
	vmovdqu64	64(%rsp,%rbx,1),%zmm18
	vmovdqa64	832(%rsp),%zmm22
	vpxorq	%ymm30,%ymm0,%ymm0
	vbroadcastf64x2	32(%rdi),%zmm30


.byte	98,115,61,72,68,241,17
.byte	98,243,61,72,68,249,0
.byte	98,115,61,72,68,209,1
.byte	98,115,61,72,68,217,16
	vmovdqu64	128(%rsp,%rbx,1),%zmm1
	vmovdqa64	896(%rsp),%zmm8
.byte	98,146,125,40,220,199
	vbroadcastf64x2	48(%rdi),%zmm31


.byte	98,51,77,64,68,250,16
.byte	98,163,77,64,68,194,1
.byte	98,51,77,64,68,226,17
.byte	98,51,77,64,68,234,0
	vmovdqu64	192(%rsp,%rbx,1),%zmm18
	vmovdqa64	960(%rsp),%zmm22
.byte	98,146,125,40,220,198
	vbroadcastf64x2	64(%rdi),%zmm30


.byte	98,227,61,72,68,225,16
.byte	98,227,61,72,68,233,1
.byte	98,227,61,72,68,201,17
.byte	98,227,61,72,68,217,0
.byte	98,146,125,40,220,199
	vbroadcastf64x2	80(%rdi),%zmm31


	vpternlogq	$0x96,%zmm17,%zmm12,%zmm14
	vpternlogq	$0x96,%zmm19,%zmm13,%zmm7
	vpternlogq	$0x96,%zmm21,%zmm16,%zmm11
	vpternlogq	$0x96,%zmm20,%zmm15,%zmm10
.byte	98,146,125,40,220,198
	vbroadcastf64x2	96(%rdi),%zmm30
	vmovdqu8	0(%rcx,%rax,1),%ymm17{%k1}{z}
.byte	98,146,125,40,220,199
	vbroadcastf64x2	112(%rdi),%zmm31


.byte	98,51,77,64,68,250,16
.byte	98,163,77,64,68,194,1
.byte	98,51,77,64,68,226,17
.byte	98,51,77,64,68,234,0
.byte	98,146,125,40,220,198
	vbroadcastf64x2	128(%rdi),%zmm30
	vpternlogq	$0x96,%zmm16,%zmm11,%zmm10
	vpxorq	%zmm12,%zmm14,%zmm24
	vpxorq	%zmm13,%zmm7,%zmm25
	vpxorq	%zmm15,%zmm10,%zmm26
.byte	98,146,125,40,220,199
	vbroadcastf64x2	144(%rdi),%zmm31
.byte	98,146,125,40,220,198
	vbroadcastf64x2	160(%rdi),%zmm30
.byte	98,146,125,40,220,199
.byte	98,146,125,40,221,198
	vpxorq	%ymm17,%ymm0,%ymm0
	vextracti32x4	$1,%zmm0,%xmm11
	movq	%r9,%r10
	vmovdqu8	%ymm0,0(%r10,%rax,1){%k1}
	vmovdqu8	%zmm0,%zmm0{%k1}{z}
	vpshufb	%ymm29,%ymm0,%ymm17
	vextracti32x4	$1,%zmm17,%xmm7
	leaq	80(%rsi),%r10
	subq	$16 * (2 - 1),%r8


	cmpq	$16,%r8
	jl	.L_small_initial_partial_block_zaugFxnkqnldtoD





	subq	$16,%r8
	movl	$0,(%rdx)
	vmovdqu64	224(%r10),%ymm1
.byte	98,243,117,32,68,225,1
.byte	98,243,117,32,68,233,16
.byte	98,243,117,32,68,193,17
.byte	98,243,117,32,68,217,0
	vpxorq	%zmm26,%zmm4,%zmm4
	vpxorq	%zmm24,%zmm0,%zmm0
	vpxorq	%zmm25,%zmm3,%zmm3

	vpxorq	%zmm5,%zmm4,%zmm4
	vpsrldq	$8,%zmm4,%zmm30
	vpslldq	$8,%zmm4,%zmm31
	vpxorq	%zmm30,%zmm0,%zmm0
	vpxorq	%zmm31,%zmm3,%zmm3
	vextracti64x4	$1,%zmm0,%ymm30
	vpxorq	%ymm30,%ymm0,%ymm0
	vextracti32x4	$1,%ymm0,%xmm30
	vpxorq	%xmm30,%xmm0,%xmm0
	vextracti64x4	$1,%zmm3,%ymm31
	vpxorq	%ymm31,%ymm3,%ymm3
	vextracti32x4	$1,%ymm3,%xmm31
	vpxorq	%xmm31,%xmm3,%xmm3
	vmovdqa64	POLY2(%rip),%xmm1


.byte	98,243,117,8,68,227,1
	vpslldq	$8,%xmm4,%xmm4
	vpxorq	%xmm4,%xmm3,%xmm4


.byte	98,243,117,8,68,236,0
	vpsrldq	$4,%xmm5,%xmm5
.byte	98,115,117,8,68,244,16
	vpslldq	$4,%xmm14,%xmm14
	vpternlogq	$0x96,%xmm0,%xmm5,%xmm14

	jmp	.L_small_initial_compute_done_zaugFxnkqnldtoD
.L_small_initial_partial_block_zaugFxnkqnldtoD:








	movl	%r8d,(%rdx)
	vmovdqu64	%xmm11,16(%rsi)
	vmovdqu64	240(%r10),%xmm1
.byte	98,243,117,0,68,225,1
.byte	98,243,117,0,68,233,16
.byte	98,243,117,0,68,193,17
.byte	98,243,117,0,68,217,0
	vpxorq	%zmm26,%zmm4,%zmm4
	vpxorq	%zmm24,%zmm0,%zmm0
	vpxorq	%zmm25,%zmm3,%zmm3

	vpxorq	%zmm5,%zmm4,%zmm4
	vpsrldq	$8,%zmm4,%zmm30
	vpslldq	$8,%zmm4,%zmm31
	vpxorq	%zmm30,%zmm0,%zmm0
	vpxorq	%zmm31,%zmm3,%zmm3
	vextracti64x4	$1,%zmm0,%ymm30
	vpxorq	%ymm30,%ymm0,%ymm0
	vextracti32x4	$1,%ymm0,%xmm30
	vpxorq	%xmm30,%xmm0,%xmm0
	vextracti64x4	$1,%zmm3,%ymm31
	vpxorq	%ymm31,%ymm3,%ymm3
	vextracti32x4	$1,%ymm3,%xmm31
	vpxorq	%xmm31,%xmm3,%xmm3
	vmovdqa64	POLY2(%rip),%xmm1


.byte	98,243,117,8,68,227,1
	vpslldq	$8,%xmm4,%xmm4
	vpxorq	%xmm4,%xmm3,%xmm4


.byte	98,243,117,8,68,236,0
	vpsrldq	$4,%xmm5,%xmm5
.byte	98,115,117,8,68,244,16
	vpslldq	$4,%xmm14,%xmm14
	vpternlogq	$0x96,%xmm0,%xmm5,%xmm14

.L_small_initial_compute_done_zaugFxnkqnldtoD:

	orq	%r8,%r8
	je	.L_after_reduction_zaugFxnkqnldtoD
	vpxorq	%xmm7,%xmm14,%xmm14
.L_after_reduction_zaugFxnkqnldtoD:
	jmp	.L_last_blocks_done_CfrpfvcjvvrcbGa
.L_last_num_blocks_is_3_CfrpfvcjvvrcbGa:
	leaq	byte64_len_to_mask_table(%rip),%r10
	movq	%r8,%r11
	kmovq	(%r10,%r11,8),%k1
	cmpl	$253,%r15d
	jae	.L_16_blocks_overflow_kblsDeoCDCisntD
	vpaddd	%zmm28,%zmm2,%zmm0
	jmp	.L_16_blocks_ok_kblsDeoCDCisntD

.L_16_blocks_overflow_kblsDeoCDCisntD:
	vpshufb	%zmm29,%zmm2,%zmm2
	vpaddd	ddq_add_1234(%rip),%zmm2,%zmm0
	vpshufb	%zmm29,%zmm0,%zmm0
.L_16_blocks_ok_kblsDeoCDCisntD:




	vbroadcastf64x2	0(%rdi),%zmm30
	vpxorq	768(%rsp),%zmm14,%zmm8
	vmovdqu64	0(%rsp,%rbx,1),%zmm1
	vextracti32x4	$2,%zmm0,%xmm2
	vshufi64x2	$0,%zmm2,%zmm2,%zmm2


	vbroadcastf64x2	16(%rdi),%zmm31
	vmovdqu64	64(%rsp,%rbx,1),%zmm18
	vmovdqa64	832(%rsp),%zmm22
	vpxorq	%zmm30,%zmm0,%zmm0
	vbroadcastf64x2	32(%rdi),%zmm30


.byte	98,115,61,72,68,241,17
.byte	98,243,61,72,68,249,0
.byte	98,115,61,72,68,209,1
.byte	98,115,61,72,68,217,16
	vmovdqu64	128(%rsp,%rbx,1),%zmm1
	vmovdqa64	896(%rsp),%zmm8
.byte	98,146,125,72,220,199
	vbroadcastf64x2	48(%rdi),%zmm31


.byte	98,51,77,64,68,250,16
.byte	98,163,77,64,68,194,1
.byte	98,51,77,64,68,226,17
.byte	98,51,77,64,68,234,0
	vmovdqu64	192(%rsp,%rbx,1),%zmm18
	vmovdqa64	960(%rsp),%zmm22
.byte	98,146,125,72,220,198
	vbroadcastf64x2	64(%rdi),%zmm30


.byte	98,227,61,72,68,225,16
.byte	98,227,61,72,68,233,1
.byte	98,227,61,72,68,201,17
.byte	98,227,61,72,68,217,0
.byte	98,146,125,72,220,199
	vbroadcastf64x2	80(%rdi),%zmm31


	vpternlogq	$0x96,%zmm17,%zmm12,%zmm14
	vpternlogq	$0x96,%zmm19,%zmm13,%zmm7
	vpternlogq	$0x96,%zmm21,%zmm16,%zmm11
	vpternlogq	$0x96,%zmm20,%zmm15,%zmm10
.byte	98,146,125,72,220,198
	vbroadcastf64x2	96(%rdi),%zmm30
	vmovdqu8	0(%rcx,%rax,1),%zmm17{%k1}{z}
.byte	98,146,125,72,220,199
	vbroadcastf64x2	112(%rdi),%zmm31


.byte	98,51,77,64,68,250,16
.byte	98,163,77,64,68,194,1
.byte	98,51,77,64,68,226,17
.byte	98,51,77,64,68,234,0
.byte	98,146,125,72,220,198
	vbroadcastf64x2	128(%rdi),%zmm30
	vpternlogq	$0x96,%zmm16,%zmm11,%zmm10
	vpxorq	%zmm12,%zmm14,%zmm24
	vpxorq	%zmm13,%zmm7,%zmm25
	vpxorq	%zmm15,%zmm10,%zmm26
.byte	98,146,125,72,220,199
	vbroadcastf64x2	144(%rdi),%zmm31
.byte	98,146,125,72,220,198
	vbroadcastf64x2	160(%rdi),%zmm30
.byte	98,146,125,72,220,199
.byte	98,146,125,72,221,198
	vpxorq	%zmm17,%zmm0,%zmm0
	vextracti32x4	$2,%zmm0,%xmm11
	movq	%r9,%r10
	vmovdqu8	%zmm0,0(%r10,%rax,1){%k1}
	vmovdqu8	%zmm0,%zmm0{%k1}{z}
	vpshufb	%zmm29,%zmm0,%zmm17
	vextracti32x4	$2,%zmm17,%xmm7
	leaq	80(%rsi),%r10
	subq	$16 * (3 - 1),%r8


	cmpq	$16,%r8
	jl	.L_small_initial_partial_block_Ajrbbfyxhsbqszm





	subq	$16,%r8
	movl	$0,(%rdx)
	vmovdqu64	208(%r10),%ymm1
	vinserti64x2	$2,240(%r10),%zmm1,%zmm1
.byte	98,243,117,64,68,225,1
.byte	98,243,117,64,68,233,16
.byte	98,243,117,64,68,193,17
.byte	98,243,117,64,68,217,0
	vpxorq	%zmm26,%zmm4,%zmm4
	vpxorq	%zmm24,%zmm0,%zmm0
	vpxorq	%zmm25,%zmm3,%zmm3

	vpxorq	%zmm5,%zmm4,%zmm4
	vpsrldq	$8,%zmm4,%zmm30
	vpslldq	$8,%zmm4,%zmm31
	vpxorq	%zmm30,%zmm0,%zmm0
	vpxorq	%zmm31,%zmm3,%zmm3
	vextracti64x4	$1,%zmm0,%ymm30
	vpxorq	%ymm30,%ymm0,%ymm0
	vextracti32x4	$1,%ymm0,%xmm30
	vpxorq	%xmm30,%xmm0,%xmm0
	vextracti64x4	$1,%zmm3,%ymm31
	vpxorq	%ymm31,%ymm3,%ymm3
	vextracti32x4	$1,%ymm3,%xmm31
	vpxorq	%xmm31,%xmm3,%xmm3
	vmovdqa64	POLY2(%rip),%xmm1


.byte	98,243,117,8,68,227,1
	vpslldq	$8,%xmm4,%xmm4
	vpxorq	%xmm4,%xmm3,%xmm4


.byte	98,243,117,8,68,236,0
	vpsrldq	$4,%xmm5,%xmm5
.byte	98,115,117,8,68,244,16
	vpslldq	$4,%xmm14,%xmm14
	vpternlogq	$0x96,%xmm0,%xmm5,%xmm14

	jmp	.L_small_initial_compute_done_Ajrbbfyxhsbqszm
.L_small_initial_partial_block_Ajrbbfyxhsbqszm:








	movl	%r8d,(%rdx)
	vmovdqu64	%xmm11,16(%rsi)
	vmovdqu64	224(%r10),%ymm1
.byte	98,243,117,32,68,225,1
.byte	98,243,117,32,68,233,16
.byte	98,243,117,32,68,193,17
.byte	98,243,117,32,68,217,0
	vpxorq	%zmm26,%zmm4,%zmm4
	vpxorq	%zmm24,%zmm0,%zmm0
	vpxorq	%zmm25,%zmm3,%zmm3

	vpxorq	%zmm5,%zmm4,%zmm4
	vpsrldq	$8,%zmm4,%zmm30
	vpslldq	$8,%zmm4,%zmm31
	vpxorq	%zmm30,%zmm0,%zmm0
	vpxorq	%zmm31,%zmm3,%zmm3
	vextracti64x4	$1,%zmm0,%ymm30
	vpxorq	%ymm30,%ymm0,%ymm0
	vextracti32x4	$1,%ymm0,%xmm30
	vpxorq	%xmm30,%xmm0,%xmm0
	vextracti64x4	$1,%zmm3,%ymm31
	vpxorq	%ymm31,%ymm3,%ymm3
	vextracti32x4	$1,%ymm3,%xmm31
	vpxorq	%xmm31,%xmm3,%xmm3
	vmovdqa64	POLY2(%rip),%xmm1


.byte	98,243,117,8,68,227,1
	vpslldq	$8,%xmm4,%xmm4
	vpxorq	%xmm4,%xmm3,%xmm4


.byte	98,243,117,8,68,236,0
	vpsrldq	$4,%xmm5,%xmm5
.byte	98,115,117,8,68,244,16
	vpslldq	$4,%xmm14,%xmm14
	vpternlogq	$0x96,%xmm0,%xmm5,%xmm14

.L_small_initial_compute_done_Ajrbbfyxhsbqszm:

	orq	%r8,%r8
	je	.L_after_reduction_Ajrbbfyxhsbqszm
	vpxorq	%xmm7,%xmm14,%xmm14
.L_after_reduction_Ajrbbfyxhsbqszm:
	jmp	.L_last_blocks_done_CfrpfvcjvvrcbGa
.L_last_num_blocks_is_4_CfrpfvcjvvrcbGa:
	leaq	byte64_len_to_mask_table(%rip),%r10
	movq	%r8,%r11
	kmovq	(%r10,%r11,8),%k1
	cmpl	$252,%r15d
	jae	.L_16_blocks_overflow_eGcBplCnDqdtGiy
	vpaddd	%zmm28,%zmm2,%zmm0
	jmp	.L_16_blocks_ok_eGcBplCnDqdtGiy

.L_16_blocks_overflow_eGcBplCnDqdtGiy:
	vpshufb	%zmm29,%zmm2,%zmm2
	vpaddd	ddq_add_1234(%rip),%zmm2,%zmm0
	vpshufb	%zmm29,%zmm0,%zmm0
.L_16_blocks_ok_eGcBplCnDqdtGiy:




	vbroadcastf64x2	0(%rdi),%zmm30
	vpxorq	768(%rsp),%zmm14,%zmm8
	vmovdqu64	0(%rsp,%rbx,1),%zmm1
	vextracti32x4	$3,%zmm0,%xmm2
	vshufi64x2	$0,%zmm2,%zmm2,%zmm2


	vbroadcastf64x2	16(%rdi),%zmm31
	vmovdqu64	64(%rsp,%rbx,1),%zmm18
	vmovdqa64	832(%rsp),%zmm22
	vpxorq	%zmm30,%zmm0,%zmm0
	vbroadcastf64x2	32(%rdi),%zmm30


.byte	98,115,61,72,68,241,17
.byte	98,243,61,72,68,249,0
.byte	98,115,61,72,68,209,1
.byte	98,115,61,72,68,217,16
	vmovdqu64	128(%rsp,%rbx,1),%zmm1
	vmovdqa64	896(%rsp),%zmm8
.byte	98,146,125,72,220,199
	vbroadcastf64x2	48(%rdi),%zmm31


.byte	98,51,77,64,68,250,16
.byte	98,163,77,64,68,194,1
.byte	98,51,77,64,68,226,17
.byte	98,51,77,64,68,234,0
	vmovdqu64	192(%rsp,%rbx,1),%zmm18
	vmovdqa64	960(%rsp),%zmm22
.byte	98,146,125,72,220,198
	vbroadcastf64x2	64(%rdi),%zmm30


.byte	98,227,61,72,68,225,16
.byte	98,227,61,72,68,233,1
.byte	98,227,61,72,68,201,17
.byte	98,227,61,72,68,217,0
.byte	98,146,125,72,220,199
	vbroadcastf64x2	80(%rdi),%zmm31


	vpternlogq	$0x96,%zmm17,%zmm12,%zmm14
	vpternlogq	$0x96,%zmm19,%zmm13,%zmm7
	vpternlogq	$0x96,%zmm21,%zmm16,%zmm11
	vpternlogq	$0x96,%zmm20,%zmm15,%zmm10
.byte	98,146,125,72,220,198
	vbroadcastf64x2	96(%rdi),%zmm30
	vmovdqu8	0(%rcx,%rax,1),%zmm17{%k1}{z}
.byte	98,146,125,72,220,199
	vbroadcastf64x2	112(%rdi),%zmm31


.byte	98,51,77,64,68,250,16
.byte	98,163,77,64,68,194,1
.byte	98,51,77,64,68,226,17
.byte	98,51,77,64,68,234,0
.byte	98,146,125,72,220,198
	vbroadcastf64x2	128(%rdi),%zmm30
	vpternlogq	$0x96,%zmm16,%zmm11,%zmm10
	vpxorq	%zmm12,%zmm14,%zmm24
	vpxorq	%zmm13,%zmm7,%zmm25
	vpxorq	%zmm15,%zmm10,%zmm26
.byte	98,146,125,72,220,199
	vbroadcastf64x2	144(%rdi),%zmm31
.byte	98,146,125,72,220,198
	vbroadcastf64x2	160(%rdi),%zmm30
.byte	98,146,125,72,220,199
.byte	98,146,125,72,221,198
	vpxorq	%zmm17,%zmm0,%zmm0
	vextracti32x4	$3,%zmm0,%xmm11
	movq	%r9,%r10
	vmovdqu8	%zmm0,0(%r10,%rax,1){%k1}
	vmovdqu8	%zmm0,%zmm0{%k1}{z}
	vpshufb	%zmm29,%zmm0,%zmm17
	vextracti32x4	$3,%zmm17,%xmm7
	leaq	80(%rsi),%r10
	subq	$16 * (4 - 1),%r8


	cmpq	$16,%r8
	jl	.L_small_initial_partial_block_xeEmmeAmgryyzGr





	subq	$16,%r8
	movl	$0,(%rdx)
	vmovdqu64	192(%r10),%zmm1
.byte	98,115,117,64,68,193,17
.byte	98,227,117,64,68,241,0
.byte	98,99,117,64,68,241,1
.byte	98,99,117,64,68,249,16

	vpxorq	%zmm26,%zmm30,%zmm30
	vpxorq	%zmm24,%zmm8,%zmm8
	vpxorq	%zmm25,%zmm22,%zmm22

	vpxorq	%zmm31,%zmm30,%zmm30
	vpsrldq	$8,%zmm30,%zmm4
	vpslldq	$8,%zmm30,%zmm5
	vpxorq	%zmm4,%zmm8,%zmm0
	vpxorq	%zmm5,%zmm22,%zmm3
	vextracti64x4	$1,%zmm0,%ymm30
	vpxorq	%ymm30,%ymm0,%ymm0
	vextracti32x4	$1,%ymm0,%xmm30
	vpxorq	%xmm30,%xmm0,%xmm0
	vextracti64x4	$1,%zmm3,%ymm31
	vpxorq	%ymm31,%ymm3,%ymm3
	vextracti32x4	$1,%ymm3,%xmm31
	vpxorq	%xmm31,%xmm3,%xmm3
	vmovdqa64	POLY2(%rip),%xmm1


.byte	98,243,117,8,68,227,1
	vpslldq	$8,%xmm4,%xmm4
	vpxorq	%xmm4,%xmm3,%xmm4


.byte	98,243,117,8,68,236,0
	vpsrldq	$4,%xmm5,%xmm5
.byte	98,115,117,8,68,244,16
	vpslldq	$4,%xmm14,%xmm14
	vpternlogq	$0x96,%xmm0,%xmm5,%xmm14

	jmp	.L_small_initial_compute_done_xeEmmeAmgryyzGr
.L_small_initial_partial_block_xeEmmeAmgryyzGr:








	movl	%r8d,(%rdx)
	vmovdqu64	%xmm11,16(%rsi)
	vmovdqu64	208(%r10),%ymm1
	vinserti64x2	$2,240(%r10),%zmm1,%zmm1
.byte	98,243,117,64,68,225,1
.byte	98,243,117,64,68,233,16
.byte	98,243,117,64,68,193,17
.byte	98,243,117,64,68,217,0
	vpxorq	%zmm26,%zmm4,%zmm4
	vpxorq	%zmm24,%zmm0,%zmm0
	vpxorq	%zmm25,%zmm3,%zmm3

	vpxorq	%zmm5,%zmm4,%zmm4
	vpsrldq	$8,%zmm4,%zmm30
	vpslldq	$8,%zmm4,%zmm31
	vpxorq	%zmm30,%zmm0,%zmm0
	vpxorq	%zmm31,%zmm3,%zmm3
	vextracti64x4	$1,%zmm0,%ymm30
	vpxorq	%ymm30,%ymm0,%ymm0
	vextracti32x4	$1,%ymm0,%xmm30
	vpxorq	%xmm30,%xmm0,%xmm0
	vextracti64x4	$1,%zmm3,%ymm31
	vpxorq	%ymm31,%ymm3,%ymm3
	vextracti32x4	$1,%ymm3,%xmm31
	vpxorq	%xmm31,%xmm3,%xmm3
	vmovdqa64	POLY2(%rip),%xmm1


.byte	98,243,117,8,68,227,1
	vpslldq	$8,%xmm4,%xmm4
	vpxorq	%xmm4,%xmm3,%xmm4


.byte	98,243,117,8,68,236,0
	vpsrldq	$4,%xmm5,%xmm5
.byte	98,115,117,8,68,244,16
	vpslldq	$4,%xmm14,%xmm14
	vpternlogq	$0x96,%xmm0,%xmm5,%xmm14

.L_small_initial_compute_done_xeEmmeAmgryyzGr:

	orq	%r8,%r8
	je	.L_after_reduction_xeEmmeAmgryyzGr
	vpxorq	%xmm7,%xmm14,%xmm14
.L_after_reduction_xeEmmeAmgryyzGr:
	jmp	.L_last_blocks_done_CfrpfvcjvvrcbGa
.L_last_num_blocks_is_5_CfrpfvcjvvrcbGa:
	leaq	byte64_len_to_mask_table(%rip),%r10
	movq	%r8,%r11
	subq	$64,%r11
	kmovq	(%r10,%r11,8),%k1
	cmpl	$251,%r15d
	jae	.L_16_blocks_overflow_bgsqDFmekFAimag
	vpaddd	%zmm28,%zmm2,%zmm0
	vpaddd	%xmm27,%xmm0,%xmm3
	jmp	.L_16_blocks_ok_bgsqDFmekFAimag

.L_16_blocks_overflow_bgsqDFmekFAimag:
	vpshufb	%zmm29,%zmm2,%zmm2
	vpaddd	ddq_add_1234(%rip),%zmm2,%zmm0
	vmovdqa64	ddq_add_4444(%rip),%zmm5
	vpaddd	%zmm5,%zmm0,%zmm3
	vpshufb	%zmm29,%zmm0,%zmm0
	vpshufb	%xmm29,%xmm3,%xmm3
.L_16_blocks_ok_bgsqDFmekFAimag:




	vbroadcastf64x2	0(%rdi),%zmm30
	vpxorq	768(%rsp),%zmm14,%zmm8
	vmovdqu64	0(%rsp,%rbx,1),%zmm1
	vextracti32x4	$0,%zmm3,%xmm2
	vshufi64x2	$0,%zmm2,%zmm2,%zmm2


	vbroadcastf64x2	16(%rdi),%zmm31
	vmovdqu64	64(%rsp,%rbx,1),%zmm18
	vmovdqa64	832(%rsp),%zmm22
	vpxorq	%zmm30,%zmm0,%zmm0
	vpxorq	%xmm30,%xmm3,%xmm3
	vbroadcastf64x2	32(%rdi),%zmm30


.byte	98,115,61,72,68,241,17
.byte	98,243,61,72,68,249,0
.byte	98,115,61,72,68,209,1
.byte	98,115,61,72,68,217,16
	vmovdqu64	128(%rsp,%rbx,1),%zmm1
	vmovdqa64	896(%rsp),%zmm8
.byte	98,146,125,72,220,199
.byte	98,146,101,8,220,223
	vbroadcastf64x2	48(%rdi),%zmm31


.byte	98,51,77,64,68,250,16
.byte	98,163,77,64,68,194,1
.byte	98,51,77,64,68,226,17
.byte	98,51,77,64,68,234,0
	vmovdqu64	192(%rsp,%rbx,1),%zmm18
	vmovdqa64	960(%rsp),%zmm22
.byte	98,146,125,72,220,198
.byte	98,146,101,8,220,222
	vbroadcastf64x2	64(%rdi),%zmm30


.byte	98,227,61,72,68,225,16
.byte	98,227,61,72,68,233,1
.byte	98,227,61,72,68,201,17
.byte	98,227,61,72,68,217,0
.byte	98,146,125,72,220,199
.byte	98,146,101,8,220,223
	vbroadcastf64x2	80(%rdi),%zmm31


	vpternlogq	$0x96,%zmm17,%zmm12,%zmm14
	vpternlogq	$0x96,%zmm19,%zmm13,%zmm7
	vpternlogq	$0x96,%zmm21,%zmm16,%zmm11
	vpternlogq	$0x96,%zmm20,%zmm15,%zmm10
.byte	98,146,125,72,220,198
.byte	98,146,101,8,220,222
	vbroadcastf64x2	96(%rdi),%zmm30
	vmovdqu8	0(%rcx,%rax,1),%zmm17
	vmovdqu8	64(%rcx,%rax,1),%xmm19{%k1}{z}
.byte	98,146,125,72,220,199
.byte	98,146,101,8,220,223
	vbroadcastf64x2	112(%rdi),%zmm31


.byte	98,51,77,64,68,250,16
.byte	98,163,77,64,68,194,1
.byte	98,51,77,64,68,226,17
.byte	98,51,77,64,68,234,0
.byte	98,146,125,72,220,198
.byte	98,146,101,8,220,222
	vbroadcastf64x2	128(%rdi),%zmm30
	vpternlogq	$0x96,%zmm16,%zmm11,%zmm10
	vpxorq	%zmm12,%zmm14,%zmm24
	vpxorq	%zmm13,%zmm7,%zmm25
	vpxorq	%zmm15,%zmm10,%zmm26
.byte	98,146,125,72,220,199
.byte	98,146,101,8,220,223
	vbroadcastf64x2	144(%rdi),%zmm31
.byte	98,146,125,72,220,198
.byte	98,146,101,8,220,222
	vbroadcastf64x2	160(%rdi),%zmm30
.byte	98,146,125,72,220,199
.byte	98,146,101,8,220,223
.byte	98,146,125,72,221,198
.byte	98,146,101,8,221,222
	vpxorq	%zmm17,%zmm0,%zmm0
	vpxorq	%xmm19,%xmm3,%xmm3
	vextracti32x4	$0,%zmm3,%xmm11
	movq	%r9,%r10
	vmovdqu8	%zmm0,0(%r10,%rax,1)
	vmovdqu8	%xmm3,64(%r10,%rax,1){%k1}
	vmovdqu8	%zmm3,%zmm3{%k1}{z}
	vpshufb	%zmm29,%zmm0,%zmm17
	vpshufb	%xmm29,%xmm3,%xmm19
	vextracti32x4	$0,%zmm19,%xmm7
	leaq	80(%rsi),%r10
	subq	$16 * (5 - 1),%r8


	cmpq	$16,%r8
	jl	.L_small_initial_partial_block_iwszuhryhslDkgD





	subq	$16,%r8
	movl	$0,(%rdx)
	vmovdqu64	176(%r10),%zmm1
.byte	98,115,117,64,68,193,17
.byte	98,227,117,64,68,241,0
.byte	98,99,117,64,68,241,1
.byte	98,99,117,64,68,249,16
	vmovdqu64	240(%r10),%xmm1
.byte	98,243,101,0,68,225,1
.byte	98,243,101,0,68,233,16
.byte	98,243,101,0,68,193,17
.byte	98,243,101,0,68,217,0

	vpxorq	%zmm30,%zmm4,%zmm4
	vpternlogq	$0x96,%zmm31,%zmm26,%zmm5
	vpternlogq	$0x96,%zmm8,%zmm24,%zmm0
	vpternlogq	$0x96,%zmm22,%zmm25,%zmm3

	vpxorq	%zmm5,%zmm4,%zmm4
	vpsrldq	$8,%zmm4,%zmm30
	vpslldq	$8,%zmm4,%zmm31
	vpxorq	%zmm30,%zmm0,%zmm0
	vpxorq	%zmm31,%zmm3,%zmm3
	vextracti64x4	$1,%zmm0,%ymm30
	vpxorq	%ymm30,%ymm0,%ymm0
	vextracti32x4	$1,%ymm0,%xmm30
	vpxorq	%xmm30,%xmm0,%xmm0
	vextracti64x4	$1,%zmm3,%ymm31
	vpxorq	%ymm31,%ymm3,%ymm3
	vextracti32x4	$1,%ymm3,%xmm31
	vpxorq	%xmm31,%xmm3,%xmm3
	vmovdqa64	POLY2(%rip),%xmm1


.byte	98,243,117,8,68,227,1
	vpslldq	$8,%xmm4,%xmm4
	vpxorq	%xmm4,%xmm3,%xmm4


.byte	98,243,117,8,68,236,0
	vpsrldq	$4,%xmm5,%xmm5
.byte	98,115,117,8,68,244,16
	vpslldq	$4,%xmm14,%xmm14
	vpternlogq	$0x96,%xmm0,%xmm5,%xmm14

	jmp	.L_small_initial_compute_done_iwszuhryhslDkgD
.L_small_initial_partial_block_iwszuhryhslDkgD:








	movl	%r8d,(%rdx)
	vmovdqu64	%xmm11,16(%rsi)
	vmovdqu64	192(%r10),%zmm1
.byte	98,115,117,64,68,193,17
.byte	98,227,117,64,68,241,0
.byte	98,99,117,64,68,241,1
.byte	98,99,117,64,68,249,16

	vpxorq	%zmm26,%zmm30,%zmm30
	vpxorq	%zmm24,%zmm8,%zmm8
	vpxorq	%zmm25,%zmm22,%zmm22

	vpxorq	%zmm31,%zmm30,%zmm30
	vpsrldq	$8,%zmm30,%zmm4
	vpslldq	$8,%zmm30,%zmm5
	vpxorq	%zmm4,%zmm8,%zmm0
	vpxorq	%zmm5,%zmm22,%zmm3
	vextracti64x4	$1,%zmm0,%ymm30
	vpxorq	%ymm30,%ymm0,%ymm0
	vextracti32x4	$1,%ymm0,%xmm30
	vpxorq	%xmm30,%xmm0,%xmm0
	vextracti64x4	$1,%zmm3,%ymm31
	vpxorq	%ymm31,%ymm3,%ymm3
	vextracti32x4	$1,%ymm3,%xmm31
	vpxorq	%xmm31,%xmm3,%xmm3
	vmovdqa64	POLY2(%rip),%xmm1


.byte	98,243,117,8,68,227,1
	vpslldq	$8,%xmm4,%xmm4
	vpxorq	%xmm4,%xmm3,%xmm4


.byte	98,243,117,8,68,236,0
	vpsrldq	$4,%xmm5,%xmm5
.byte	98,115,117,8,68,244,16
	vpslldq	$4,%xmm14,%xmm14
	vpternlogq	$0x96,%xmm0,%xmm5,%xmm14

.L_small_initial_compute_done_iwszuhryhslDkgD:

	orq	%r8,%r8
	je	.L_after_reduction_iwszuhryhslDkgD
	vpxorq	%xmm7,%xmm14,%xmm14
.L_after_reduction_iwszuhryhslDkgD:
	jmp	.L_last_blocks_done_CfrpfvcjvvrcbGa
.L_last_num_blocks_is_6_CfrpfvcjvvrcbGa:
	leaq	byte64_len_to_mask_table(%rip),%r10
	movq	%r8,%r11
	subq	$64,%r11
	kmovq	(%r10,%r11,8),%k1
	cmpl	$250,%r15d
	jae	.L_16_blocks_overflow_oaGuttEwoetbnjp
	vpaddd	%zmm28,%zmm2,%zmm0
	vpaddd	%ymm27,%ymm0,%ymm3
	jmp	.L_16_blocks_ok_oaGuttEwoetbnjp

.L_16_blocks_overflow_oaGuttEwoetbnjp:
	vpshufb	%zmm29,%zmm2,%zmm2
	vpaddd	ddq_add_1234(%rip),%zmm2,%zmm0
	vmovdqa64	ddq_add_4444(%rip),%zmm5
	vpaddd	%zmm5,%zmm0,%zmm3
	vpshufb	%zmm29,%zmm0,%zmm0
	vpshufb	%ymm29,%ymm3,%ymm3
.L_16_blocks_ok_oaGuttEwoetbnjp:




	vbroadcastf64x2	0(%rdi),%zmm30
	vpxorq	768(%rsp),%zmm14,%zmm8
	vmovdqu64	0(%rsp,%rbx,1),%zmm1
	vextracti32x4	$1,%zmm3,%xmm2
	vshufi64x2	$0,%zmm2,%zmm2,%zmm2


	vbroadcastf64x2	16(%rdi),%zmm31
	vmovdqu64	64(%rsp,%rbx,1),%zmm18
	vmovdqa64	832(%rsp),%zmm22
	vpxorq	%zmm30,%zmm0,%zmm0
	vpxorq	%ymm30,%ymm3,%ymm3
	vbroadcastf64x2	32(%rdi),%zmm30


.byte	98,115,61,72,68,241,17
.byte	98,243,61,72,68,249,0
.byte	98,115,61,72,68,209,1
.byte	98,115,61,72,68,217,16
	vmovdqu64	128(%rsp,%rbx,1),%zmm1
	vmovdqa64	896(%rsp),%zmm8
.byte	98,146,125,72,220,199
.byte	98,146,101,40,220,223
	vbroadcastf64x2	48(%rdi),%zmm31


.byte	98,51,77,64,68,250,16
.byte	98,163,77,64,68,194,1
.byte	98,51,77,64,68,226,17
.byte	98,51,77,64,68,234,0
	vmovdqu64	192(%rsp,%rbx,1),%zmm18
	vmovdqa64	960(%rsp),%zmm22
.byte	98,146,125,72,220,198
.byte	98,146,101,40,220,222
